

Microchip Technology PIC LITE Macro Assembler V1.44 build -154322312 
                                                                                               Thu Nov 16 16:25:38 2017

Microchip Technology Omniscient Code Generator v1.44 (Free mode) build 201709140600
     1                           	processor	16F887
     2                           	opt	pw 120
     3                           	opt	lm
     4                           	psect	idataBANK0,global,class=CODE,delta=2
     5                           	psect	idataBANK1,global,class=CODE,delta=2
     6                           	psect	strings,global,class=STRING,delta=2
     7                           	psect	cinit,global,class=CODE,merge=1,delta=2
     8                           	psect	bssBANK0,global,class=BANK0,space=1,delta=1
     9                           	psect	dataBANK0,global,class=BANK0,space=1,delta=1
    10                           	psect	bssBANK1,global,class=BANK1,space=1,delta=1
    11                           	psect	dataBANK1,global,class=BANK1,space=1,delta=1
    12                           	psect	inittext,global,class=CODE,delta=2
    13                           	psect	clrtext,global,class=CODE,delta=2
    14                           	psect	cstackCOMMON,global,class=COMMON,space=1,delta=1
    15                           	psect	cstackBANK0,global,class=BANK0,space=1,delta=1
    16                           	psect	maintext,global,class=CODE,split=1,delta=2
    17                           	psect	text1,local,class=CODE,merge=1,delta=2
    18                           	psect	text2,local,class=CODE,merge=1,delta=2
    19                           	psect	text3,local,class=CODE,merge=1,delta=2
    20                           	psect	text4,local,class=CODE,merge=1,delta=2
    21                           	psect	text5,local,class=CODE,merge=1,delta=2
    22                           	psect	text6,local,class=CODE,merge=1,delta=2
    23                           	psect	text7,local,class=CODE,merge=1,delta=2
    24                           	psect	text8,local,class=CODE,merge=1,delta=2
    25                           	psect	text9,local,class=CODE,merge=1,delta=2
    26                           	psect	text10,local,class=CODE,merge=1,delta=2
    27                           	psect	text11,local,class=CODE,merge=1,delta=2
    28                           	psect	text12,local,class=CODE,merge=1,delta=2
    29                           	psect	text13,local,class=CODE,merge=1,delta=2
    30                           	psect	text14,local,class=CODE,merge=1,delta=2
    31                           	psect	text15,local,class=CODE,merge=1,delta=2
    32                           	psect	text16,local,class=CODE,merge=1,delta=2
    33                           	psect	text17,local,class=CODE,merge=1,delta=2
    34                           	psect	text18,local,class=CODE,merge=1,delta=2
    35                           	psect	text19,local,class=CODE,merge=1,delta=2
    36                           	psect	text20,local,class=CODE,merge=1,delta=2
    37                           	psect	text21,local,class=CODE,merge=1,delta=2
    38                           	psect	text22,local,class=CODE,merge=1,delta=2
    39                           	psect	text23,local,class=CODE,merge=1,delta=2,group=2
    40                           	psect	text24,local,class=CODE,merge=1,delta=2,group=2
    41                           	psect	text25,local,class=CODE,merge=1,delta=2
    42                           	psect	text26,local,class=CODE,merge=1,delta=2
    43                           	psect	text27,local,class=CODE,merge=1,delta=2
    44                           	psect	text28,local,class=CODE,merge=1,delta=2,group=2
    45                           	psect	text29,local,class=CODE,merge=1,delta=2
    46                           	psect	text30,local,class=CODE,merge=1,delta=2
    47                           	psect	text31,local,class=CODE,merge=1,delta=2
    48                           	psect	text32,local,class=CODE,merge=1,delta=2
    49                           	psect	text33,local,class=CODE,merge=1,delta=2
    50                           	dabs	1,0x7E,2
    51  0000                     
    52                           ; Version 1.44
    53                           ; Generated 14/09/2017 GMT
    54                           ; 
    55                           ; Copyright © 2017, Microchip Technology Inc. and its subsidiaries ("Microchip")
    56                           ; All rights reserved.
    57                           ; 
    58                           ; This software is developed by Microchip Technology Inc. and its subsidiaries ("Microch
      +                          ip").
    59                           ; 
    60                           ; Redistribution and use in source and binary forms, with or without modification, are
    61                           ; permitted provided that the following conditions are met:
    62                           ; 
    63                           ;     1. Redistributions of source code must retain the above copyright notice, this lis
      +                          t of
    64                           ;        conditions and the following disclaimer.
    65                           ; 
    66                           ;     2. Redistributions in binary form must reproduce the above copyright notice, this 
      +                          list
    67                           ;        of conditions and the following disclaimer in the documentation and/or other
    68                           ;        materials provided with the distribution.
    69                           ; 
    70                           ;     3. Microchip's name may not be used to endorse or promote products derived from th
      +                          is
    71                           ;        software without specific prior written permission.
    72                           ; 
    73                           ; THIS SOFTWARE IS PROVIDED BY MICROCHIP "AS IS" AND ANY EXPRESS OR IMPLIED WARRANTIES,
    74                           ; INCLUDING, BUT NOT LIMITED TO, THE IMPLIED WARRANTIES OF MERCHANTABILITY AND FITNESS F
      +                          OR
    75                           ; PURPOSE ARE DISCLAIMED.  IN NO EVENT SHALL MICROCHIP BE LIABLE FOR ANY DIRECT, INDIREC
      +                          T,
    76                           ; INCIDENTAL, SPECIAL, EXEMPLARY, OR CONSEQUENTIAL DAMAGES (INCLUDING BUT NOT LIMITED TO
    77                           ; PROCUREMENT OF SUBSTITUTE GOODS OR SERVICES; LOSS OF USE, DATA OR PROFITS; OR BUSINESS
    78                           ; INTERRUPTION) HOWSOEVER CAUSED AND ON ANY THEORY OF LIABILITY, WHETHER IN CONTRACT, ST
      +                          RICT
    79                           ; LIABILITY, OR TORT (INCLUDING NEGLIGENCE OR OTHERWISE) ARISING IN ANY WAY OUT OF THE U
      +                          SE OF
    80                           ; THIS SOFTWARE, EVEN IF ADVISED OF THE POSSIBILITY OF SUCH DAMAGE.
    81                           ; 
    82                           ; 
    83                           ; Code-generator required, PIC16F887 Definitions
    84                           ; 
    85                           ; SFR Addresses
    86  0000                     	;# 
    87  0001                     	;# 
    88  0002                     	;# 
    89  0003                     	;# 
    90  0004                     	;# 
    91  0005                     	;# 
    92  0006                     	;# 
    93  0007                     	;# 
    94  0008                     	;# 
    95  0009                     	;# 
    96  000A                     	;# 
    97  000B                     	;# 
    98  000C                     	;# 
    99  000D                     	;# 
   100  000E                     	;# 
   101  000E                     	;# 
   102  000F                     	;# 
   103  0010                     	;# 
   104  0011                     	;# 
   105  0012                     	;# 
   106  0013                     	;# 
   107  0014                     	;# 
   108  0015                     	;# 
   109  0015                     	;# 
   110  0016                     	;# 
   111  0017                     	;# 
   112  0018                     	;# 
   113  0019                     	;# 
   114  001A                     	;# 
   115  001B                     	;# 
   116  001B                     	;# 
   117  001C                     	;# 
   118  001D                     	;# 
   119  001E                     	;# 
   120  001F                     	;# 
   121  0081                     	;# 
   122  0085                     	;# 
   123  0086                     	;# 
   124  0087                     	;# 
   125  0088                     	;# 
   126  0089                     	;# 
   127  008C                     	;# 
   128  008D                     	;# 
   129  008E                     	;# 
   130  008F                     	;# 
   131  0090                     	;# 
   132  0091                     	;# 
   133  0092                     	;# 
   134  0093                     	;# 
   135  0093                     	;# 
   136  0093                     	;# 
   137  0094                     	;# 
   138  0095                     	;# 
   139  0096                     	;# 
   140  0097                     	;# 
   141  0098                     	;# 
   142  0099                     	;# 
   143  009A                     	;# 
   144  009B                     	;# 
   145  009C                     	;# 
   146  009D                     	;# 
   147  009E                     	;# 
   148  009F                     	;# 
   149  0105                     	;# 
   150  0107                     	;# 
   151  0108                     	;# 
   152  0109                     	;# 
   153  010C                     	;# 
   154  010C                     	;# 
   155  010D                     	;# 
   156  010E                     	;# 
   157  010F                     	;# 
   158  0185                     	;# 
   159  0187                     	;# 
   160  0188                     	;# 
   161  0189                     	;# 
   162  018C                     	;# 
   163  018D                     	;# 
   164                           
   165                           	psect	idataBANK0
   166  1574                     __pidataBANK0:	
   167                           
   168                           ;initializer for _s_green_duration
   169  1574  340A               	retlw	10
   170  1575  3400               	retlw	0
   171                           
   172                           ;initializer for _n_green_duration
   173  1576  340A               	retlw	10
   174  1577  3400               	retlw	0
   175                           
   176                           ;initializer for _w_green_duration
   177  1578  340A               	retlw	10
   178  1579  3400               	retlw	0
   179                           
   180                           ;initializer for _e_green_duration
   181  157A  340A               	retlw	10
   182  157B  3400               	retlw	0
   183                           
   184                           ;initializer for _traffic_fsm_state
   185  157C  3401               	retlw	1
   186  157D  3400               	retlw	0
   187                           
   188                           ;initializer for _cur_disp_lcd_loc
   189  157E  3480               	retlw	128
   190  157F  3400               	retlw	0
   191                           
   192                           ;initializer for _prescale_timer1
   193  1580  3401               	retlw	1
   194  1581  3400               	retlw	0
   195                           
   196                           	psect	idataBANK1
   197  1593                     __pidataBANK1:	
   198                           
   199                           ;initializer for Data_2Digit_Num_Disp@F1759
   200  1593  3430               	retlw	48
   201  1594  3431               	retlw	49
   202  1595  3432               	retlw	50
   203  1596  3433               	retlw	51
   204  1597  3434               	retlw	52
   205  1598  3435               	retlw	53
   206  1599  3436               	retlw	54
   207  159A  3437               	retlw	55
   208  159B  3438               	retlw	56
   209  159C  3439               	retlw	57
   210                           
   211                           ;initializer for Data_3Digit_Num_Disp_LCD@F1749
   212  159D  3430               	retlw	48
   213  159E  3431               	retlw	49
   214  159F  3432               	retlw	50
   215  15A0  3433               	retlw	51
   216  15A1  3434               	retlw	52
   217  15A2  3435               	retlw	53
   218  15A3  3436               	retlw	54
   219  15A4  3437               	retlw	55
   220  15A5  3438               	retlw	56
   221  15A6  3439               	retlw	57
   222                           
   223                           	psect	strings
   224  1000                     __pstrings:	
   225  1000                     stringtab:	
   226  1000                     __stringtab:	
   227  1000                     stringcode:	
   228                           ;	String table - string pointers are 1 byte each
   229                           
   230  1000                     stringdir:	
   231  1000  3010               	movlw	high stringdir
   232  1001  008A               	movwf	10
   233  1002  0804               	movf	4,w
   234  1003  0A84               	incf	4,f
   235  1004  0782               	addwf	2,f
   236  1005                     __stringbase:	
   237  1005  3400               	retlw	0
   238  1006                     __end_of__stringtab:	
   239  1006                     _green_right_disp:	
   240  1006  3447               	retlw	71
   241  1007  3452               	retlw	82
   242  1008  3445               	retlw	69
   243  1009  3445               	retlw	69
   244  100A  344E               	retlw	78
   245  100B  342D               	retlw	45
   246  100C  343E               	retlw	62
   247  100D  3400               	retlw	0
   248  100E                     __end_of_green_right_disp:	
   249  100E                     _led_off_disp:	
   250  100E  344F               	retlw	79
   251  100F  3446               	retlw	70
   252  1010  3446               	retlw	70
   253  1011  3400               	retlw	0
   254  1012                     __end_of_led_off_disp:	
   255  1012                     _yellow_disp:	
   256  1012  3459               	retlw	89
   257  1013  3445               	retlw	69
   258  1014  344C               	retlw	76
   259  1015  344C               	retlw	76
   260  1016  344F               	retlw	79
   261  1017  3457               	retlw	87
   262  1018  3420               	retlw	32
   263  1019  3420               	retlw	32
   264  101A  3400               	retlw	0
   265  101B                     __end_of_yellow_disp:	
   266  101B                     _green_disp:	
   267  101B  3447               	retlw	71
   268  101C  3452               	retlw	82
   269  101D  3445               	retlw	69
   270  101E  3445               	retlw	69
   271  101F  344E               	retlw	78
   272  1020  3420               	retlw	32
   273  1021  3420               	retlw	32
   274  1022  3420               	retlw	32
   275  1023  3400               	retlw	0
   276  1024                     __end_of_green_disp:	
   277  1024                     _red_disp:	
   278  1024  3452               	retlw	82
   279  1025  3445               	retlw	69
   280  1026  3444               	retlw	68
   281  1027  3420               	retlw	32
   282  1028  3420               	retlw	32
   283  1029  3420               	retlw	32
   284  102A  3420               	retlw	32
   285  102B  3420               	retlw	32
   286  102C  3400               	retlw	0
   287  102D                     __end_of_red_disp:	
   288  102D                     _led_on_disp:	
   289  102D  3420               	retlw	32
   290  102E  344F               	retlw	79
   291  102F  344E               	retlw	78
   292  1030  3400               	retlw	0
   293  1031                     __end_of_led_on_disp:	
   294  1031                     _secs_disp:	
   295  1031  3453               	retlw	83
   296  1032  3465               	retlw	101
   297  1033  3400               	retlw	0
   298  1034                     __end_of_secs_disp:	
   299  1034                     _blank_traffic_disp:	
   300  1034  3420               	retlw	32
   301  1035  3400               	retlw	0
   302  1036                     __end_of_blank_traffic_disp:	
   303  1036                     _error_traffic_disp:	
   304  1036  3445               	retlw	69
   305  1037  3400               	retlw	0
   306  1038                     __end_of_error_traffic_disp:	
   307  1038                     _level2_traffic_disp:	
   308  1038  3453               	retlw	83
   309  1039  3400               	retlw	0
   310  103A                     __end_of_level2_traffic_disp:	
   311  103A                     _level1_traffic_disp:	
   312  103A  3446               	retlw	70
   313  103B  3400               	retlw	0
   314  103C                     __end_of_level1_traffic_disp:	
   315  103C                     _level0_traffic_disp:	
   316  103C  344E               	retlw	78
   317  103D  3400               	retlw	0
   318  103E                     __end_of_level0_traffic_disp:	
   319  103E                     _south_disp:	
   320  103E  3453               	retlw	83
   321  103F  3400               	retlw	0
   322  1040                     __end_of_south_disp:	
   323  1040                     _north_disp:	
   324  1040  344E               	retlw	78
   325  1041  3400               	retlw	0
   326  1042                     __end_of_north_disp:	
   327  1042                     _west_disp:	
   328  1042  3457               	retlw	87
   329  1043  3400               	retlw	0
   330  1044                     __end_of_west_disp:	
   331  1044                     _east_disp:	
   332  1044  3445               	retlw	69
   333  1045  3400               	retlw	0
   334  1046                     __end_of_east_disp:	
   335  000E                     _TMR1L	set	14
   336  000F                     _TMR1H	set	15
   337  0010                     _T1CON	set	16
   338  0009                     _PORTE	set	9
   339  0008                     _PORTD	set	8
   340  0007                     _PORTC	set	7
   341  0006                     _PORTB	set	6
   342  0005                     _PORTA	set	5
   343  0048                     _RE0	set	72
   344  0049                     _RE1	set	73
   345  004A                     _RE2	set	74
   346  0085                     _T1CKPS1	set	133
   347  0084                     _T1CKPS0	set	132
   348  0060                     _TMR1IF	set	96
   349  0031                     _RB1	set	49
   350  0030                     _RB0	set	48
   351  0037                     _RB7	set	55
   352  0036                     _RB6	set	54
   353  0035                     _RB5	set	53
   354  0034                     _RB4	set	52
   355  0033                     _RB3	set	51
   356  0032                     _RB2	set	50
   357  0089                     _TRISE	set	137
   358  0088                     _TRISD	set	136
   359  0087                     _TRISC	set	135
   360  0086                     _TRISB	set	134
   361  0085                     _TRISA	set	133
   362  0189                     _ANSELH	set	393
   363  0188                     _ANSEL	set	392
   364                           
   365                           	psect	cinit
   366  07D3                     start_initialization:	
   367                           ; #config settings
   368                           
   369  07D3                     __initialization:	
   370                           
   371                           ; Initialize objects allocated to BANK1
   372  07D3  1383               	bcf	3,7	;select IRP bank0
   373  07D4  30B4               	movlw	low (__pdataBANK1+20)
   374  07D5  00FD               	movwf	btemp+-1
   375  07D6  3015               	movlw	high __pidataBANK1
   376  07D7  00FE               	movwf	btemp
   377  07D8  3093               	movlw	low __pidataBANK1
   378  07D9  00FF               	movwf	btemp+1
   379  07DA  30A0               	movlw	low __pdataBANK1
   380  07DB  0084               	movwf	4
   381  07DC  160A  118A  2586  120A  118A  	fcall	init_ram0
   382                           
   383                           ; Initialize objects allocated to BANK0
   384  07E1  3070               	movlw	low (__pdataBANK0+14)
   385  07E2  00FD               	movwf	btemp+-1
   386  07E3  3015               	movlw	high __pidataBANK0
   387  07E4  00FE               	movwf	btemp
   388  07E5  3074               	movlw	low __pidataBANK0
   389  07E6  00FF               	movwf	btemp+1
   390  07E7  3062               	movlw	low __pdataBANK0
   391  07E8  0084               	movwf	4
   392  07E9  160A  118A  2586  120A  118A  	fcall	init_ram0
   393                           
   394                           ; Clear objects allocated to BANK1
   395  07EE  30B4               	movlw	low __pbssBANK1
   396  07EF  0084               	movwf	4
   397  07F0  30BC               	movlw	low (__pbssBANK1+8)
   398  07F1  160A  118A  2555  120A  118A  	fcall	clear_ram0
   399                           
   400                           ; Clear objects allocated to BANK0
   401  07F6  3020               	movlw	low __pbssBANK0
   402  07F7  0084               	movwf	4
   403  07F8  3042               	movlw	low (__pbssBANK0+34)
   404  07F9  160A  118A  2555   	fcall	clear_ram0
   405  07FC                     end_of_initialization:	
   406                           ;End of C runtime variable initialization code
   407                           
   408  07FC                     __end_of__initialization:	
   409  07FC  0183               	clrf	3
   410  07FD  160A  118A  2E6B   	ljmp	_main	;jump to C main() function
   411                           
   412                           	psect	bssBANK0
   413  0020                     __pbssBANK0:	
   414  0020                     _cur_s_green_left_secs:	
   415  0020                     	ds	2
   416  0022                     _cur_s_yellow_left_secs:	
   417  0022                     	ds	2
   418  0024                     _cur_s_red_left_secs:	
   419  0024                     	ds	2
   420  0026                     _cur_n_green_left_secs:	
   421  0026                     	ds	2
   422  0028                     _cur_n_yellow_left_secs:	
   423  0028                     	ds	2
   424  002A                     _cur_n_red_left_secs:	
   425  002A                     	ds	2
   426  002C                     _cur_w_green_right_secs_left:	
   427  002C                     	ds	2
   428  002E                     _cur_w_green_left_secs:	
   429  002E                     	ds	2
   430  0030                     _cur_w_yellow_left_secs:	
   431  0030                     	ds	2
   432  0032                     _cur_w_red_left_secs:	
   433  0032                     	ds	2
   434  0034                     _cur_e_green_right_secs_left:	
   435  0034                     	ds	2
   436  0036                     _cur_e_green_left_secs:	
   437  0036                     	ds	2
   438  0038                     _cur_e_yellow_left_secs:	
   439  0038                     	ds	2
   440  003A                     _cur_e_red_left_secs:	
   441  003A                     	ds	2
   442  003C                     _timer1_init:	
   443  003C                     	ds	2
   444  003E                     _each_fsmstate_secs:	
   445  003E                     	ds	2
   446  0040                     _prescale_shift:	
   447  0040                     	ds	2
   448                           
   449                           	psect	dataBANK0
   450  0062                     __pdataBANK0:	
   451  0062                     _s_green_duration:	
   452  0062                     	ds	2
   453  0064                     _n_green_duration:	
   454  0064                     	ds	2
   455  0066                     _w_green_duration:	
   456  0066                     	ds	2
   457  0068                     _e_green_duration:	
   458  0068                     	ds	2
   459  006A                     _traffic_fsm_state:	
   460  006A                     	ds	2
   461  006C                     _cur_disp_lcd_loc:	
   462  006C                     	ds	2
   463  006E                     _prescale_timer1:	
   464  006E                     	ds	2
   465                           
   466                           	psect	bssBANK1
   467  00B4                     __pbssBANK1:	
   468  00B4                     _num_calls:	
   469  00B4                     	ds	4
   470  00B8                     _cur_s_green_right_secs_left:	
   471  00B8                     	ds	2
   472  00BA                     _cur_n_green_right_secs_left:	
   473  00BA                     	ds	2
   474                           
   475                           	psect	dataBANK1
   476  00A0                     __pdataBANK1:	
   477  00A0                     Data_2Digit_Num_Disp@F1759:	
   478  00A0                     	ds	10
   479  00AA                     Data_3Digit_Num_Disp_LCD@F1749:	
   480  00AA                     	ds	10
   481                           
   482                           	psect	inittext
   483  1582                     init_fetch0:	
   484                           ;	Called with low address in FSR and high address in W
   485                           
   486  1582  087E               	movf	126,w
   487  1583  008A               	movwf	10
   488  1584  087F               	movf	127,w
   489  1585  0082               	movwf	2
   490  1586                     init_ram0:	
   491                           ;Called with:
   492                           ;	high address of idata address in btemp 
   493                           ;	low address of idata address in btemp+1 
   494                           ;	low address of data in FSR
   495                           ;	high address + 1 of data in btemp-1
   496                           
   497  1586  2582  160A  118A   	fcall	init_fetch0
   498  1589  0080               	movwf	0
   499  158A  0A84               	incf	4,f
   500  158B  0804               	movf	4,w
   501  158C  067D               	xorwf	125,w
   502  158D  1903               	btfsc	3,2
   503  158E  3400               	retlw	0
   504  158F  0AFF               	incf	127,f
   505  1590  1903               	btfsc	3,2
   506  1591  0AFE               	incf	126,f
   507  1592  2D86               	goto	init_ram0
   508                           
   509                           	psect	clrtext
   510  1555                     clear_ram0:	
   511                           ;	Called with FSR containing the base address, and
   512                           ;	W with the last address+1
   513                           
   514  1555  0064               	clrwdt	;clear the watchdog before getting into this loop
   515  1556                     clrloop0:	
   516  1556  0180               	clrf	0	;clear RAM location pointed to by FSR
   517  1557  0A84               	incf	4,f	;increment pointer
   518  1558  0604               	xorwf	4,w	;XOR with final address
   519  1559  1903               	btfsc	3,2	;have we reached the end yet?
   520  155A  3400               	retlw	0	;all done for this memory range, return
   521  155B  0604               	xorwf	4,w	;XOR again to restore value
   522  155C  2D56               	goto	clrloop0	;do the next byte
   523                           
   524                           	psect	cstackCOMMON
   525  0070                     __pcstackCOMMON:	
   526  0070                     ?_LCD_Init:	
   527  0070                     ?_LCD_Const_Disp:	
   528                           ; 1 bytes @ 0x0
   529                           
   530  0070                     ?_Run_Timer1:	
   531                           ; 1 bytes @ 0x0
   532                           
   533  0070                     ?_Timer1_Tick:	
   534                           ; 1 bytes @ 0x0
   535                           
   536  0070                     ?_Startup_E_Wait_Fsm_Proc:	
   537                           ; 1 bytes @ 0x0
   538                           
   539  0070                     ?_E_Go_Fsm_Proc:	
   540                           ; 1 bytes @ 0x0
   541                           
   542  0070                     ?_Data_Str_Disp_LCD:	
   543                           ; 1 bytes @ 0x0
   544                           
   545  0070                     ?_Startup_W_Go_Fsm_Proc:	
   546                           ; 1 bytes @ 0x0
   547                           
   548  0070                     ?_E_Wait_Fsm_Proc:	
   549                           ; 1 bytes @ 0x0
   550                           
   551  0070                     ?_Startup_W_Wait_Fsm_Proc:	
   552                           ; 1 bytes @ 0x0
   553                           
   554  0070                     ?_W_Go_Fsm_Proc:	
   555                           ; 1 bytes @ 0x0
   556                           
   557  0070                     ?_Startup_N_Go_Fsm_Proc:	
   558                           ; 1 bytes @ 0x0
   559                           
   560  0070                     ?_W_Wait_Fsm_Proc:	
   561                           ; 1 bytes @ 0x0
   562                           
   563  0070                     ?_Startup_N_Wait_Fsm_Proc:	
   564                           ; 1 bytes @ 0x0
   565                           
   566  0070                     ?_N_Go_Fsm_Proc:	
   567                           ; 1 bytes @ 0x0
   568                           
   569  0070                     ?_Startup_S_Go_Fsm_Proc:	
   570                           ; 1 bytes @ 0x0
   571                           
   572  0070                     ?_N_Wait_Fsm_Proc:	
   573                           ; 1 bytes @ 0x0
   574                           
   575  0070                     ?_Startup_S_Wait_Fsm_Proc:	
   576                           ; 1 bytes @ 0x0
   577                           
   578  0070                     ?_S_Go_Fsm_Proc:	
   579                           ; 1 bytes @ 0x0
   580                           
   581  0070                     ?_Startup_E_Go_Fsm_Proc:	
   582                           ; 1 bytes @ 0x0
   583                           
   584  0070                     ?_S_Wait_Fsm_Proc:	
   585                           ; 1 bytes @ 0x0
   586                           
   587  0070                     ?_Prescale_Timer1_Calc:	
   588                           ; 1 bytes @ 0x0
   589                           
   590  0070                     ??_Prescale_Timer1_Calc:	
   591                           ; 1 bytes @ 0x0
   592                           
   593  0070                     ?_delay_time:	
   594                           ; 1 bytes @ 0x0
   595                           
   596  0070                     ?_main:	
   597                           ; 1 bytes @ 0x0
   598                           
   599  0070                     ?_Traffic_Fsm:	
   600                           ; 1 bytes @ 0x0
   601                           
   602  0070                     ?_LCD_Pulse:	
   603                           ; 1 bytes @ 0x0
   604                           
   605  0070                     ?_Write_LCD_Data:	
   606                           ; 1 bytes @ 0x0
   607                           
   608  0070                     ?___lwdiv:	
   609                           ; 1 bytes @ 0x0
   610                           
   611  0070                     ?___lwmod:	
   612                           ; 2 bytes @ 0x0
   613                           
   614  0070                     ?___lldiv:	
   615                           ; 2 bytes @ 0x0
   616                           
   617  0070                     delay_time@time_delay:	
   618                           ; 4 bytes @ 0x0
   619                           
   620  0070                     ___lwdiv@divisor:	
   621                           ; 2 bytes @ 0x0
   622                           
   623  0070                     ___lwmod@divisor:	
   624                           ; 2 bytes @ 0x0
   625                           
   626  0070                     ___lldiv@divisor:	
   627                           ; 2 bytes @ 0x0
   628                           
   629                           
   630                           ; 4 bytes @ 0x0
   631  0070                     	ds	2
   632  0072                     ?_Write_LCD_Command:	
   633  0072                     ??_delay_time:	
   634                           ; 1 bytes @ 0x2
   635                           
   636  0072                     ??_LCD_Pulse:	
   637                           ; 1 bytes @ 0x2
   638                           
   639  0072                     ??_Write_LCD_Data:	
   640                           ; 1 bytes @ 0x2
   641                           
   642  0072                     Write_LCD_Data@ch:	
   643                           ; 1 bytes @ 0x2
   644                           
   645  0072                     Write_LCD_Command@cmd:	
   646                           ; 1 bytes @ 0x2
   647                           
   648  0072                     ___lwdiv@dividend:	
   649                           ; 2 bytes @ 0x2
   650                           
   651  0072                     ___lwmod@dividend:	
   652                           ; 2 bytes @ 0x2
   653                           
   654                           
   655                           ; 2 bytes @ 0x2
   656  0072                     	ds	1
   657  0073                     ??_Data_Str_Disp_LCD:	
   658                           
   659                           ; 1 bytes @ 0x3
   660  0073                     	ds	1
   661  0074                     ??_LCD_Init:	
   662  0074                     ?_Goto_XY_LCD_Disp:	
   663                           ; 1 bytes @ 0x4
   664                           
   665  0074                     ??_Write_LCD_Command:	
   666                           ; 1 bytes @ 0x4
   667                           
   668  0074                     ??___lwdiv:	
   669                           ; 1 bytes @ 0x4
   670                           
   671  0074                     ??___lwmod:	
   672                           ; 1 bytes @ 0x4
   673                           
   674  0074                     Data_Str_Disp_LCD@char_ptr:	
   675                           ; 1 bytes @ 0x4
   676                           
   677  0074                     Goto_XY_LCD_Disp@line_num:	
   678                           ; 1 bytes @ 0x4
   679                           
   680  0074                     ___lldiv@dividend:	
   681                           ; 2 bytes @ 0x4
   682                           
   683                           
   684                           ; 4 bytes @ 0x4
   685  0074                     	ds	1
   686  0075                     ___lwmod@counter:	
   687  0075                     ___lwdiv@quotient:	
   688                           ; 1 bytes @ 0x5
   689                           
   690                           
   691                           ; 2 bytes @ 0x5
   692  0075                     	ds	1
   693  0076                     Goto_XY_LCD_Disp@col_num:	
   694                           
   695                           ; 2 bytes @ 0x6
   696  0076                     	ds	1
   697  0077                     ___lwdiv@counter:	
   698                           
   699                           ; 1 bytes @ 0x7
   700  0077                     	ds	1
   701  0078                     ??_Run_Timer1:	
   702  0078                     ??_Goto_XY_LCD_Disp:	
   703                           ; 1 bytes @ 0x8
   704                           
   705  0078                     ??___lldiv:	
   706                           ; 1 bytes @ 0x8
   707                           
   708  0078                     Goto_XY_LCD_Disp@col_lcd:	
   709                           ; 1 bytes @ 0x8
   710                           
   711                           
   712                           ; 2 bytes @ 0x8
   713  0078                     	ds	1
   714  0079                     ___lldiv@quotient:	
   715                           
   716                           ; 4 bytes @ 0x9
   717  0079                     	ds	1
   718  007A                     Goto_XY_LCD_Disp@line_lcd:	
   719                           
   720                           ; 2 bytes @ 0xA
   721  007A                     	ds	2
   722  007C                     ??_LCD_Const_Disp:	
   723                           
   724                           ; 1 bytes @ 0xC
   725  007C                     	ds	1
   726  007D                     ___lldiv@counter:	
   727                           
   728                           ; 1 bytes @ 0xD
   729  007D                     	ds	1
   730  007E                     ??_Traffic_Init:	
   731  007E                     ??_E_Go_Fsm_Proc:	
   732                           ; 1 bytes @ 0xE
   733                           
   734  007E                     ??_E_Wait_Fsm_Proc:	
   735                           ; 1 bytes @ 0xE
   736                           
   737  007E                     ??_W_Go_Fsm_Proc:	
   738                           ; 1 bytes @ 0xE
   739                           
   740  007E                     ??_W_Wait_Fsm_Proc:	
   741                           ; 1 bytes @ 0xE
   742                           
   743  007E                     ??_N_Go_Fsm_Proc:	
   744                           ; 1 bytes @ 0xE
   745                           
   746  007E                     ??_N_Wait_Fsm_Proc:	
   747                           ; 1 bytes @ 0xE
   748                           
   749  007E                     ??_S_Go_Fsm_Proc:	
   750                           ; 1 bytes @ 0xE
   751                           
   752  007E                     ??_S_Wait_Fsm_Proc:	
   753                           ; 1 bytes @ 0xE
   754                           
   755  007E                     ??_main:	
   756                           ; 1 bytes @ 0xE
   757                           
   758  007E                     ??_Traffic_Fsm:	
   759                           ; 1 bytes @ 0xE
   760                           
   761                           
   762                           	psect	cstackBANK0
   763  0042                     __pcstackBANK0:	
   764                           ; 1 bytes @ 0xE
   765                           
   766  0042                     ?_Data_3Digit_Num_Disp_LCD:	
   767  0042                     Data_3Digit_Num_Disp_LCD@data_int:	
   768                           ; 1 bytes @ 0x0
   769                           
   770                           
   771                           ; 2 bytes @ 0x0
   772  0042                     	ds	2
   773  0044                     ??_Data_3Digit_Num_Disp_LCD:	
   774                           
   775                           ; 1 bytes @ 0x2
   776  0044                     	ds	4
   777  0048                     Data_3Digit_Num_Disp_LCD@num_data:	
   778                           
   779                           ; 10 bytes @ 0x6
   780  0048                     	ds	10
   781  0052                     Data_3Digit_Num_Disp_LCD@hundreds_digit:	
   782                           
   783                           ; 2 bytes @ 0x10
   784  0052                     	ds	2
   785  0054                     Data_3Digit_Num_Disp_LCD@tens_digit:	
   786                           
   787                           ; 2 bytes @ 0x12
   788  0054                     	ds	2
   789  0056                     Data_3Digit_Num_Disp_LCD@unit_digit:	
   790                           
   791                           ; 2 bytes @ 0x14
   792  0056                     	ds	2
   793  0058                     Data_3Digit_Num_Disp_LCD@num:	
   794                           
   795                           ; 2 bytes @ 0x16
   796  0058                     	ds	2
   797  005A                     ??_Startup_E_Wait_Fsm_Proc:	
   798  005A                     ??_Startup_W_Go_Fsm_Proc:	
   799                           ; 1 bytes @ 0x18
   800                           
   801  005A                     ??_Startup_W_Wait_Fsm_Proc:	
   802                           ; 1 bytes @ 0x18
   803                           
   804  005A                     ??_Startup_N_Go_Fsm_Proc:	
   805                           ; 1 bytes @ 0x18
   806                           
   807  005A                     ??_Startup_N_Wait_Fsm_Proc:	
   808                           ; 1 bytes @ 0x18
   809                           
   810  005A                     ??_Startup_S_Go_Fsm_Proc:	
   811                           ; 1 bytes @ 0x18
   812                           
   813  005A                     ??_Startup_S_Wait_Fsm_Proc:	
   814                           ; 1 bytes @ 0x18
   815                           
   816  005A                     ??_Startup_E_Go_Fsm_Proc:	
   817                           ; 1 bytes @ 0x18
   818                           
   819                           
   820                           ; 1 bytes @ 0x18
   821  005A                     	ds	6
   822  0060                     ?_Traffic_Init:	
   823  0060                     ??_Timer1_Tick:	
   824                           ; 1 bytes @ 0x1E
   825                           
   826  0060                     Traffic_Init@traffic_fsm_init:	
   827                           ; 1 bytes @ 0x1E
   828                           
   829                           
   830                           ; 2 bytes @ 0x1E
   831  0060                     	ds	2
   832                           
   833                           	psect	maintext
   834  166B                     __pmaintext:	
   835 ;;
   836 ;;Main: autosize = 0, tempsize = 0, incstack = 0, save=0
   837 ;;
   838 ;; *************** function _main *****************
   839 ;; Defined at:
   840 ;;		line 175 in file "timer13.c"
   841 ;; Parameters:    Size  Location     Type
   842 ;;		None
   843 ;; Auto vars:     Size  Location     Type
   844 ;;		None
   845 ;; Return value:  Size  Location     Type
   846 ;;                  1    wreg      void 
   847 ;; Registers used:
   848 ;;		wreg, fsr0l, fsr0h, status,2, status,0, pclath, cstack
   849 ;; Tracked objects:
   850 ;;		On entry : B00/0
   851 ;;		On exit  : 0/0
   852 ;;		Unchanged: 0/0
   853 ;; Data sizes:     COMMON   BANK0   BANK1   BANK3   BANK2
   854 ;;      Params:         0       0       0       0       0
   855 ;;      Locals:         0       0       0       0       0
   856 ;;      Temps:          0       0       0       0       0
   857 ;;      Totals:         0       0       0       0       0
   858 ;;Total ram usage:        0 bytes
   859 ;; Hardware stack levels required when called:    8
   860 ;; This function calls:
   861 ;;		_LCD_Const_Disp
   862 ;;		_LCD_Init
   863 ;;		_Run_Timer1
   864 ;;		_Timer1_Tick
   865 ;;		_Traffic_Init
   866 ;; This function is called by:
   867 ;;		Startup code after reset
   868 ;; This function uses a non-reentrant model
   869 ;;
   870                           
   871                           
   872                           ;psect for function _main
   873  166B                     _main:	
   874                           
   875                           ;timer13.c: 177: TRISA = 0x00;
   876                           
   877                           ;incstack = 0
   878                           ; Regs used in _main: [wreg-fsr0h+status,2+status,0+pclath+cstack]
   879  166B  1683               	bsf	3,5	;RP0=1, select bank1
   880  166C  1303               	bcf	3,6	;RP1=0, select bank1
   881  166D  0185               	clrf	5	;volatile
   882                           
   883                           ;timer13.c: 178: PORTA = 0x00;
   884  166E  1283               	bcf	3,5	;RP0=0, select bank0
   885  166F  1303               	bcf	3,6	;RP1=0, select bank0
   886  1670  0185               	clrf	5	;volatile
   887                           
   888                           ;timer13.c: 179: TRISB = 0x00;
   889  1671  1683               	bsf	3,5	;RP0=1, select bank1
   890  1672  1303               	bcf	3,6	;RP1=0, select bank1
   891  1673  0186               	clrf	6	;volatile
   892                           
   893                           ;timer13.c: 180: PORTB = 0x00;
   894  1674  1283               	bcf	3,5	;RP0=0, select bank0
   895  1675  1303               	bcf	3,6	;RP1=0, select bank0
   896  1676  0186               	clrf	6	;volatile
   897                           
   898                           ;timer13.c: 181: TRISC = 0x00;
   899  1677  1683               	bsf	3,5	;RP0=1, select bank1
   900  1678  1303               	bcf	3,6	;RP1=0, select bank1
   901  1679  0187               	clrf	7	;volatile
   902                           
   903                           ;timer13.c: 182: PORTC = 0x00;
   904  167A  1283               	bcf	3,5	;RP0=0, select bank0
   905  167B  1303               	bcf	3,6	;RP1=0, select bank0
   906  167C  0187               	clrf	7	;volatile
   907                           
   908                           ;timer13.c: 183: TRISD = 0x00;
   909  167D  1683               	bsf	3,5	;RP0=1, select bank1
   910  167E  1303               	bcf	3,6	;RP1=0, select bank1
   911  167F  0188               	clrf	8	;volatile
   912                           
   913                           ;timer13.c: 184: PORTD = 0x00;
   914  1680  1283               	bcf	3,5	;RP0=0, select bank0
   915  1681  1303               	bcf	3,6	;RP1=0, select bank0
   916  1682  0188               	clrf	8	;volatile
   917                           
   918                           ;timer13.c: 185: TRISE = 0x00;
   919  1683  1683               	bsf	3,5	;RP0=1, select bank1
   920  1684  1303               	bcf	3,6	;RP1=0, select bank1
   921  1685  0189               	clrf	9	;volatile
   922                           
   923                           ;timer13.c: 186: PORTE = 0x00;
   924  1686  1283               	bcf	3,5	;RP0=0, select bank0
   925  1687  1303               	bcf	3,6	;RP1=0, select bank0
   926  1688  0189               	clrf	9	;volatile
   927                           
   928                           ;timer13.c: 187: ANSEL =0X00;
   929  1689  1683               	bsf	3,5	;RP0=1, select bank3
   930  168A  1703               	bsf	3,6	;RP1=1, select bank3
   931  168B  0188               	clrf	8	;volatile
   932                           
   933                           ;timer13.c: 188: ANSELH=0X00;
   934  168C  0189               	clrf	9	;volatile
   935                           
   936                           ;timer13.c: 190: LCD_Init();
   937  168D  160A  118A  262D  160A  118A  	fcall	_LCD_Init
   938                           
   939                           ;timer13.c: 191: LCD_Const_Disp();
   940  1692  120A  158A  2361  160A  118A  	fcall	_LCD_Const_Disp
   941                           
   942                           ;timer13.c: 192: Traffic_Init((12));
   943  1697  300C               	movlw	12
   944  1698  1283               	bcf	3,5	;RP0=0, select bank0
   945  1699  1303               	bcf	3,6	;RP1=0, select bank0
   946  169A  00E0               	movwf	Traffic_Init@traffic_fsm_init
   947  169B  3000               	movlw	0
   948  169C  00E1               	movwf	Traffic_Init@traffic_fsm_init+1
   949  169D  160A  118A  2747  160A  118A  	fcall	_Traffic_Init
   950                           
   951                           ;timer13.c: 193: Run_Timer1();
   952  16A2  120A  158A  200B  160A  118A  	fcall	_Run_Timer1
   953  16A7                     l2587:	
   954                           ;timer13.c: 194: for(;;)
   955                           
   956                           
   957                           ;timer13.c: 195: {
   958                           ;timer13.c: 196: Timer1_Tick();
   959  16A7  160A  118A  26F7  160A  118A  	fcall	_Timer1_Tick
   960                           
   961                           ;timer13.c: 197: }
   962  16AC  2EA7               	goto	l2587
   963  16AD                     __end_of_main:	
   964                           
   965                           	psect	text1
   966  1747                     __ptext1:	
   967 ;; *************** function _Traffic_Init *****************
   968 ;; Defined at:
   969 ;;		line 421 in file "timer13.c"
   970 ;; Parameters:    Size  Location     Type
   971 ;;  traffic_fsm_    2   30[BANK0 ] unsigned int 
   972 ;; Auto vars:     Size  Location     Type
   973 ;;		None
   974 ;; Return value:  Size  Location     Type
   975 ;;                  1    wreg      void 
   976 ;; Registers used:
   977 ;;		wreg, fsr0l, fsr0h, status,2, status,0, pclath, cstack
   978 ;; Tracked objects:
   979 ;;		On entry : 0/0
   980 ;;		On exit  : 0/0
   981 ;;		Unchanged: 0/0
   982 ;; Data sizes:     COMMON   BANK0   BANK1   BANK3   BANK2
   983 ;;      Params:         0       2       0       0       0
   984 ;;      Locals:         0       0       0       0       0
   985 ;;      Temps:          0       0       0       0       0
   986 ;;      Totals:         0       2       0       0       0
   987 ;;Total ram usage:        2 bytes
   988 ;; Hardware stack levels used:    1
   989 ;; Hardware stack levels required when called:    6
   990 ;; This function calls:
   991 ;;		_LCD_Const_Disp
   992 ;;		_Startup_E_Go_Fsm_Proc
   993 ;;		_Startup_E_Wait_Fsm_Proc
   994 ;;		_Startup_N_Go_Fsm_Proc
   995 ;;		_Startup_N_Wait_Fsm_Proc
   996 ;;		_Startup_S_Go_Fsm_Proc
   997 ;;		_Startup_S_Wait_Fsm_Proc
   998 ;;		_Startup_W_Go_Fsm_Proc
   999 ;;		_Startup_W_Wait_Fsm_Proc
  1000 ;;		_Write_LCD_Command
  1001 ;; This function is called by:
  1002 ;;		_main
  1003 ;; This function uses a non-reentrant model
  1004 ;;
  1005                           
  1006                           
  1007                           ;psect for function _Traffic_Init
  1008  1747                     _Traffic_Init:	
  1009                           
  1010                           ;timer13.c: 423: each_fsmstate_secs = 0;
  1011                           
  1012                           ;incstack = 0
  1013                           ; Regs used in _Traffic_Init: [wreg-fsr0h+status,2+status,0+pclath+cstack]
  1014  1747  1283               	bcf	3,5	;RP0=0, select bank0
  1015  1748  1303               	bcf	3,6	;RP1=0, select bank0
  1016  1749  01BE               	clrf	_each_fsmstate_secs
  1017  174A  01BF               	clrf	_each_fsmstate_secs+1
  1018                           
  1019                           ;timer13.c: 424: Write_LCD_Command(0x01);
  1020  174B  3001               	movlw	1
  1021  174C  00F2               	movwf	Write_LCD_Command@cmd
  1022  174D  3000               	movlw	0
  1023  174E  00F3               	movwf	Write_LCD_Command@cmd+1
  1024  174F  160A  118A  255D  160A  118A  	fcall	_Write_LCD_Command
  1025                           
  1026                           ;timer13.c: 425: LCD_Const_Disp();
  1027  1754  120A  158A  2361  160A  118A  	fcall	_LCD_Const_Disp
  1028                           
  1029                           ;timer13.c: 427: traffic_fsm_state =traffic_fsm_init;
  1030  1759  1283               	bcf	3,5	;RP0=0, select bank0
  1031  175A  1303               	bcf	3,6	;RP1=0, select bank0
  1032  175B  0861               	movf	Traffic_Init@traffic_fsm_init+1,w
  1033  175C  00EB               	movwf	_traffic_fsm_state+1
  1034  175D  0860               	movf	Traffic_Init@traffic_fsm_init,w
  1035  175E  00EA               	movwf	_traffic_fsm_state
  1036                           
  1037                           ;timer13.c: 428: switch(traffic_fsm_state)
  1038  175F  2F80               	goto	l2547
  1039  1760                     l2529:	
  1040                           ;timer13.c: 429: {
  1041                           ;timer13.c: 430: case (1):
  1042                           
  1043                           
  1044                           ;timer13.c: 431: Startup_E_Go_Fsm_Proc();
  1045  1760  120A  118A  20D8   	fcall	_Startup_E_Go_Fsm_Proc
  1046                           
  1047                           ;timer13.c: 433: break;
  1048  1763  0008               	return
  1049  1764                     l2531:	
  1050                           ;timer13.c: 434: case (3):
  1051                           
  1052                           
  1053                           ;timer13.c: 435: Startup_E_Wait_Fsm_Proc();
  1054  1764  120A  158A  2444   	fcall	_Startup_E_Wait_Fsm_Proc
  1055                           
  1056                           ;timer13.c: 437: break;
  1057  1767  0008               	return
  1058  1768                     l2533:	
  1059                           ;timer13.c: 438: case (4):
  1060                           
  1061                           
  1062                           ;timer13.c: 439: Startup_W_Go_Fsm_Proc();
  1063  1768  120A  118A  22EC   	fcall	_Startup_W_Go_Fsm_Proc
  1064                           
  1065                           ;timer13.c: 441: break;
  1066  176B  0008               	return
  1067  176C                     l2535:	
  1068                           ;timer13.c: 442: case (6):
  1069                           
  1070                           
  1071                           ;timer13.c: 443: Startup_W_Wait_Fsm_Proc();
  1072  176C  120A  158A  261E   	fcall	_Startup_W_Wait_Fsm_Proc
  1073                           
  1074                           ;timer13.c: 445: break;
  1075  176F  0008               	return
  1076  1770                     l2537:	
  1077                           ;timer13.c: 446: case (7):
  1078                           
  1079                           
  1080                           ;timer13.c: 447: Startup_N_Go_Fsm_Proc();
  1081  1770  120A  118A  23F6   	fcall	_Startup_N_Go_Fsm_Proc
  1082                           
  1083                           ;timer13.c: 449: break;
  1084  1773  0008               	return
  1085  1774                     l2539:	
  1086                           ;timer13.c: 450: case (9):
  1087                           
  1088                           
  1089                           ;timer13.c: 451: Startup_N_Wait_Fsm_Proc();
  1090  1774  120A  158A  2531   	fcall	_Startup_N_Wait_Fsm_Proc
  1091                           
  1092                           ;timer13.c: 453: break;
  1093  1777  0008               	return
  1094  1778                     l2541:	
  1095                           ;timer13.c: 454: case (10):
  1096                           
  1097                           
  1098                           ;timer13.c: 455: Startup_S_Go_Fsm_Proc();
  1099  1778  120A  118A  21E2   	fcall	_Startup_S_Go_Fsm_Proc
  1100                           
  1101                           ;timer13.c: 457: break;
  1102  177B  0008               	return
  1103  177C                     l2543:	
  1104                           ;timer13.c: 458: case (12):
  1105                           
  1106                           
  1107                           ;timer13.c: 459: Startup_S_Wait_Fsm_Proc();
  1108  177C  120A  158A  270B   	fcall	_Startup_S_Wait_Fsm_Proc
  1109                           
  1110                           ;timer13.c: 461: }
  1111                           
  1112                           ;timer13.c: 460: break;
  1113  177F  0008               	return
  1114  1780                     l2547:	
  1115                           
  1116                           ; Switch on 2 bytes has been partitioned into a top level switch of size 1, and 1 sub-sw
      +                          itches
  1117                           ; Switch size 1, requested type "space"
  1118                           ; Number of cases is 1, Range of values is 0 to 0
  1119                           ; switch strategies available:
  1120                           ; Name         Instructions Cycles
  1121                           ; simple_byte            4     3 (average)
  1122                           ; direct_byte           11     8 (fixed)
  1123                           ; jumptable            260     6 (fixed)
  1124                           ;	Chosen strategy is simple_byte
  1125  1780  1283               	bcf	3,5	;RP0=0, select bank0
  1126  1781  1303               	bcf	3,6	;RP1=0, select bank0
  1127  1782  086B               	movf	_traffic_fsm_state+1,w
  1128  1783  3A00               	xorlw	0	; case 0
  1129  1784  1903               	skipnz
  1130  1785  2F87               	goto	l2641
  1131  1786  2FA1               	goto	l263
  1132  1787                     l2641:	
  1133                           
  1134                           ; Switch size 1, requested type "space"
  1135                           ; Number of cases is 8, Range of values is 1 to 12
  1136                           ; switch strategies available:
  1137                           ; Name         Instructions Cycles
  1138                           ; simple_byte           25    13 (average)
  1139                           ; direct_byte           47    11 (fixed)
  1140                           ; jumptable            263     9 (fixed)
  1141                           ;	Chosen strategy is simple_byte
  1142  1787  086A               	movf	_traffic_fsm_state,w
  1143  1788  3A01               	xorlw	1	; case 1
  1144  1789  1903               	skipnz
  1145  178A  2F60               	goto	l2529
  1146  178B  3A02               	xorlw	2	; case 3
  1147  178C  1903               	skipnz
  1148  178D  2F64               	goto	l2531
  1149  178E  3A07               	xorlw	7	; case 4
  1150  178F  1903               	skipnz
  1151  1790  2F68               	goto	l2533
  1152  1791  3A02               	xorlw	2	; case 6
  1153  1792  1903               	skipnz
  1154  1793  2F6C               	goto	l2535
  1155  1794  3A01               	xorlw	1	; case 7
  1156  1795  1903               	skipnz
  1157  1796  2F70               	goto	l2537
  1158  1797  3A0E               	xorlw	14	; case 9
  1159  1798  1903               	skipnz
  1160  1799  2F74               	goto	l2539
  1161  179A  3A03               	xorlw	3	; case 10
  1162  179B  1903               	skipnz
  1163  179C  2F78               	goto	l2541
  1164  179D  3A06               	xorlw	6	; case 12
  1165  179E  1903               	skipnz
  1166  179F  2F7C               	goto	l2543
  1167  17A0  2FA1               	goto	l263
  1168  17A1                     l263:	
  1169  17A1  0008               	return
  1170  17A2                     __end_of_Traffic_Init:	
  1171                           
  1172                           	psect	text2
  1173  0B61                     __ptext2:	
  1174 ;; *************** function _LCD_Const_Disp *****************
  1175 ;; Defined at:
  1176 ;;		line 854 in file "timer13.c"
  1177 ;; Parameters:    Size  Location     Type
  1178 ;;		None
  1179 ;; Auto vars:     Size  Location     Type
  1180 ;;		None
  1181 ;; Return value:  Size  Location     Type
  1182 ;;                  1    wreg      void 
  1183 ;; Registers used:
  1184 ;;		wreg, fsr0l, fsr0h, status,2, status,0, pclath, cstack
  1185 ;; Tracked objects:
  1186 ;;		On entry : 0/0
  1187 ;;		On exit  : 0/0
  1188 ;;		Unchanged: 0/0
  1189 ;; Data sizes:     COMMON   BANK0   BANK1   BANK3   BANK2
  1190 ;;      Params:         0       0       0       0       0
  1191 ;;      Locals:         0       0       0       0       0
  1192 ;;      Temps:          0       0       0       0       0
  1193 ;;      Totals:         0       0       0       0       0
  1194 ;;Total ram usage:        0 bytes
  1195 ;; Hardware stack levels used:    1
  1196 ;; Hardware stack levels required when called:    4
  1197 ;; This function calls:
  1198 ;;		_Data_Str_Disp_LCD
  1199 ;;		_Goto_XY_LCD_Disp
  1200 ;; This function is called by:
  1201 ;;		_main
  1202 ;;		_Traffic_Init
  1203 ;; This function uses a non-reentrant model
  1204 ;;
  1205                           
  1206                           
  1207                           ;psect for function _LCD_Const_Disp
  1208  0B61                     _LCD_Const_Disp:	
  1209                           
  1210                           ;timer13.c: 856: Goto_XY_LCD_Disp((1u), (1u));
  1211                           
  1212                           ;incstack = 0
  1213                           ; Regs used in _LCD_Const_Disp: [wreg-fsr0h+status,2+status,0+pclath+cstack]
  1214  0B61  3001               	movlw	1
  1215  0B62  00F4               	movwf	Goto_XY_LCD_Disp@line_num
  1216  0B63  3000               	movlw	0
  1217  0B64  00F5               	movwf	Goto_XY_LCD_Disp@line_num+1
  1218  0B65  3001               	movlw	1
  1219  0B66  00F6               	movwf	Goto_XY_LCD_Disp@col_num
  1220  0B67  3000               	movlw	0
  1221  0B68  00F7               	movwf	Goto_XY_LCD_Disp@col_num+1
  1222  0B69  160A  118A  26AD  120A  158A  	fcall	_Goto_XY_LCD_Disp
  1223                           
  1224                           ;timer13.c: 857: Data_Str_Disp_LCD(east_disp);
  1225  0B6E  303F               	movlw	(low ((_east_disp-__stringbase)| (0+32768)))& (0+255)
  1226  0B6F  160A  118A  25D5  120A  158A  	fcall	_Data_Str_Disp_LCD
  1227                           
  1228                           ;timer13.c: 858: Goto_XY_LCD_Disp((1u), (10U));
  1229  0B74  3001               	movlw	1
  1230  0B75  00F4               	movwf	Goto_XY_LCD_Disp@line_num
  1231  0B76  3000               	movlw	0
  1232  0B77  00F5               	movwf	Goto_XY_LCD_Disp@line_num+1
  1233  0B78  300A               	movlw	10
  1234  0B79  00F6               	movwf	Goto_XY_LCD_Disp@col_num
  1235  0B7A  3000               	movlw	0
  1236  0B7B  00F7               	movwf	Goto_XY_LCD_Disp@col_num+1
  1237  0B7C  160A  118A  26AD  120A  158A  	fcall	_Goto_XY_LCD_Disp
  1238                           
  1239                           ;timer13.c: 859: Data_Str_Disp_LCD(led_on_disp);
  1240  0B81  3028               	movlw	(low ((_led_on_disp-__stringbase)| (0+32768)))& (0+255)
  1241  0B82  160A  118A  25D5  120A  158A  	fcall	_Data_Str_Disp_LCD
  1242                           
  1243                           ;timer13.c: 860: Goto_XY_LCD_Disp((1u), (19U));
  1244  0B87  3001               	movlw	1
  1245  0B88  00F4               	movwf	Goto_XY_LCD_Disp@line_num
  1246  0B89  3000               	movlw	0
  1247  0B8A  00F5               	movwf	Goto_XY_LCD_Disp@line_num+1
  1248  0B8B  3013               	movlw	19
  1249  0B8C  00F6               	movwf	Goto_XY_LCD_Disp@col_num
  1250  0B8D  3000               	movlw	0
  1251  0B8E  00F7               	movwf	Goto_XY_LCD_Disp@col_num+1
  1252  0B8F  160A  118A  26AD  120A  158A  	fcall	_Goto_XY_LCD_Disp
  1253                           
  1254                           ;timer13.c: 861: Data_Str_Disp_LCD(secs_disp);
  1255  0B94  302C               	movlw	(low ((_secs_disp-__stringbase)| (0+32768)))& (0+255)
  1256  0B95  160A  118A  25D5  120A  158A  	fcall	_Data_Str_Disp_LCD
  1257                           
  1258                           ;timer13.c: 863: Goto_XY_LCD_Disp((2u), (1u));
  1259  0B9A  3002               	movlw	2
  1260  0B9B  00F4               	movwf	Goto_XY_LCD_Disp@line_num
  1261  0B9C  3000               	movlw	0
  1262  0B9D  00F5               	movwf	Goto_XY_LCD_Disp@line_num+1
  1263  0B9E  3001               	movlw	1
  1264  0B9F  00F6               	movwf	Goto_XY_LCD_Disp@col_num
  1265  0BA0  3000               	movlw	0
  1266  0BA1  00F7               	movwf	Goto_XY_LCD_Disp@col_num+1
  1267  0BA2  160A  118A  26AD  120A  158A  	fcall	_Goto_XY_LCD_Disp
  1268                           
  1269                           ;timer13.c: 864: Data_Str_Disp_LCD(west_disp);
  1270  0BA7  303D               	movlw	(low ((_west_disp-__stringbase)| (0+32768)))& (0+255)
  1271  0BA8  160A  118A  25D5  120A  158A  	fcall	_Data_Str_Disp_LCD
  1272                           
  1273                           ;timer13.c: 865: Goto_XY_LCD_Disp((2u), (10U));
  1274  0BAD  3002               	movlw	2
  1275  0BAE  00F4               	movwf	Goto_XY_LCD_Disp@line_num
  1276  0BAF  3000               	movlw	0
  1277  0BB0  00F5               	movwf	Goto_XY_LCD_Disp@line_num+1
  1278  0BB1  300A               	movlw	10
  1279  0BB2  00F6               	movwf	Goto_XY_LCD_Disp@col_num
  1280  0BB3  3000               	movlw	0
  1281  0BB4  00F7               	movwf	Goto_XY_LCD_Disp@col_num+1
  1282  0BB5  160A  118A  26AD  120A  158A  	fcall	_Goto_XY_LCD_Disp
  1283                           
  1284                           ;timer13.c: 866: Data_Str_Disp_LCD(led_on_disp);
  1285  0BBA  3028               	movlw	(low ((_led_on_disp-__stringbase)| (0+32768)))& (0+255)
  1286  0BBB  160A  118A  25D5  120A  158A  	fcall	_Data_Str_Disp_LCD
  1287                           
  1288                           ;timer13.c: 867: Goto_XY_LCD_Disp((2u), (19U));
  1289  0BC0  3002               	movlw	2
  1290  0BC1  00F4               	movwf	Goto_XY_LCD_Disp@line_num
  1291  0BC2  3000               	movlw	0
  1292  0BC3  00F5               	movwf	Goto_XY_LCD_Disp@line_num+1
  1293  0BC4  3013               	movlw	19
  1294  0BC5  00F6               	movwf	Goto_XY_LCD_Disp@col_num
  1295  0BC6  3000               	movlw	0
  1296  0BC7  00F7               	movwf	Goto_XY_LCD_Disp@col_num+1
  1297  0BC8  160A  118A  26AD  120A  158A  	fcall	_Goto_XY_LCD_Disp
  1298                           
  1299                           ;timer13.c: 868: Data_Str_Disp_LCD(secs_disp);
  1300  0BCD  302C               	movlw	(low ((_secs_disp-__stringbase)| (0+32768)))& (0+255)
  1301  0BCE  160A  118A  25D5  120A  158A  	fcall	_Data_Str_Disp_LCD
  1302                           
  1303                           ;timer13.c: 870: Goto_XY_LCD_Disp((3u), (1u));
  1304  0BD3  3003               	movlw	3
  1305  0BD4  00F4               	movwf	Goto_XY_LCD_Disp@line_num
  1306  0BD5  3000               	movlw	0
  1307  0BD6  00F5               	movwf	Goto_XY_LCD_Disp@line_num+1
  1308  0BD7  3001               	movlw	1
  1309  0BD8  00F6               	movwf	Goto_XY_LCD_Disp@col_num
  1310  0BD9  3000               	movlw	0
  1311  0BDA  00F7               	movwf	Goto_XY_LCD_Disp@col_num+1
  1312  0BDB  160A  118A  26AD  120A  158A  	fcall	_Goto_XY_LCD_Disp
  1313                           
  1314                           ;timer13.c: 871: Data_Str_Disp_LCD(north_disp);
  1315  0BE0  303B               	movlw	(low ((_north_disp-__stringbase)| (0+32768)))& (0+255)
  1316  0BE1  160A  118A  25D5  120A  158A  	fcall	_Data_Str_Disp_LCD
  1317                           
  1318                           ;timer13.c: 872: Goto_XY_LCD_Disp((3u), (10U));
  1319  0BE6  3003               	movlw	3
  1320  0BE7  00F4               	movwf	Goto_XY_LCD_Disp@line_num
  1321  0BE8  3000               	movlw	0
  1322  0BE9  00F5               	movwf	Goto_XY_LCD_Disp@line_num+1
  1323  0BEA  300A               	movlw	10
  1324  0BEB  00F6               	movwf	Goto_XY_LCD_Disp@col_num
  1325  0BEC  3000               	movlw	0
  1326  0BED  00F7               	movwf	Goto_XY_LCD_Disp@col_num+1
  1327  0BEE  160A  118A  26AD  120A  158A  	fcall	_Goto_XY_LCD_Disp
  1328                           
  1329                           ;timer13.c: 873: Data_Str_Disp_LCD(led_on_disp);
  1330  0BF3  3028               	movlw	(low ((_led_on_disp-__stringbase)| (0+32768)))& (0+255)
  1331  0BF4  160A  118A  25D5  120A  158A  	fcall	_Data_Str_Disp_LCD
  1332                           
  1333                           ;timer13.c: 874: Goto_XY_LCD_Disp((3u), (19U));
  1334  0BF9  3003               	movlw	3
  1335  0BFA  00F4               	movwf	Goto_XY_LCD_Disp@line_num
  1336  0BFB  3000               	movlw	0
  1337  0BFC  00F5               	movwf	Goto_XY_LCD_Disp@line_num+1
  1338  0BFD  3013               	movlw	19
  1339  0BFE  00F6               	movwf	Goto_XY_LCD_Disp@col_num
  1340  0BFF  3000               	movlw	0
  1341  0C00  00F7               	movwf	Goto_XY_LCD_Disp@col_num+1
  1342  0C01  160A  118A  26AD  120A  158A  	fcall	_Goto_XY_LCD_Disp
  1343                           
  1344                           ;timer13.c: 875: Data_Str_Disp_LCD(secs_disp);
  1345  0C06  302C               	movlw	(low ((_secs_disp-__stringbase)| (0+32768)))& (0+255)
  1346  0C07  160A  118A  25D5  120A  158A  	fcall	_Data_Str_Disp_LCD
  1347                           
  1348                           ;timer13.c: 877: Goto_XY_LCD_Disp((4u), (1u));
  1349  0C0C  3004               	movlw	4
  1350  0C0D  00F4               	movwf	Goto_XY_LCD_Disp@line_num
  1351  0C0E  3000               	movlw	0
  1352  0C0F  00F5               	movwf	Goto_XY_LCD_Disp@line_num+1
  1353  0C10  3001               	movlw	1
  1354  0C11  00F6               	movwf	Goto_XY_LCD_Disp@col_num
  1355  0C12  3000               	movlw	0
  1356  0C13  00F7               	movwf	Goto_XY_LCD_Disp@col_num+1
  1357  0C14  160A  118A  26AD  120A  158A  	fcall	_Goto_XY_LCD_Disp
  1358                           
  1359                           ;timer13.c: 878: Data_Str_Disp_LCD(south_disp);
  1360  0C19  3039               	movlw	(low ((_south_disp-__stringbase)| (0+32768)))& (0+255)
  1361  0C1A  160A  118A  25D5  120A  158A  	fcall	_Data_Str_Disp_LCD
  1362                           
  1363                           ;timer13.c: 879: Goto_XY_LCD_Disp((4u), (10U));
  1364  0C1F  3004               	movlw	4
  1365  0C20  00F4               	movwf	Goto_XY_LCD_Disp@line_num
  1366  0C21  3000               	movlw	0
  1367  0C22  00F5               	movwf	Goto_XY_LCD_Disp@line_num+1
  1368  0C23  300A               	movlw	10
  1369  0C24  00F6               	movwf	Goto_XY_LCD_Disp@col_num
  1370  0C25  3000               	movlw	0
  1371  0C26  00F7               	movwf	Goto_XY_LCD_Disp@col_num+1
  1372  0C27  160A  118A  26AD  120A  158A  	fcall	_Goto_XY_LCD_Disp
  1373                           
  1374                           ;timer13.c: 880: Data_Str_Disp_LCD(led_on_disp);
  1375  0C2C  3028               	movlw	(low ((_led_on_disp-__stringbase)| (0+32768)))& (0+255)
  1376  0C2D  160A  118A  25D5  120A  158A  	fcall	_Data_Str_Disp_LCD
  1377                           
  1378                           ;timer13.c: 881: Goto_XY_LCD_Disp((4u), (19U));
  1379  0C32  3004               	movlw	4
  1380  0C33  00F4               	movwf	Goto_XY_LCD_Disp@line_num
  1381  0C34  3000               	movlw	0
  1382  0C35  00F5               	movwf	Goto_XY_LCD_Disp@line_num+1
  1383  0C36  3013               	movlw	19
  1384  0C37  00F6               	movwf	Goto_XY_LCD_Disp@col_num
  1385  0C38  3000               	movlw	0
  1386  0C39  00F7               	movwf	Goto_XY_LCD_Disp@col_num+1
  1387  0C3A  160A  118A  26AD  120A  158A  	fcall	_Goto_XY_LCD_Disp
  1388                           
  1389                           ;timer13.c: 882: Data_Str_Disp_LCD(secs_disp);
  1390  0C3F  302C               	movlw	(low ((_secs_disp-__stringbase)| (0+32768)))& (0+255)
  1391  0C40  160A  118A  25D5   	fcall	_Data_Str_Disp_LCD
  1392  0C43  0008               	return
  1393  0C44                     __end_of_LCD_Const_Disp:	
  1394                           
  1395                           	psect	text3
  1396  16F7                     __ptext3:	
  1397 ;; *************** function _Timer1_Tick *****************
  1398 ;; Defined at:
  1399 ;;		line 895 in file "timer13.c"
  1400 ;; Parameters:    Size  Location     Type
  1401 ;;		None
  1402 ;; Auto vars:     Size  Location     Type
  1403 ;;		None
  1404 ;; Return value:  Size  Location     Type
  1405 ;;                  1    wreg      void 
  1406 ;; Registers used:
  1407 ;;		wreg, fsr0l, fsr0h, status,2, status,0, pclath, cstack
  1408 ;; Tracked objects:
  1409 ;;		On entry : 0/0
  1410 ;;		On exit  : 0/0
  1411 ;;		Unchanged: 0/0
  1412 ;; Data sizes:     COMMON   BANK0   BANK1   BANK3   BANK2
  1413 ;;      Params:         0       0       0       0       0
  1414 ;;      Locals:         0       0       0       0       0
  1415 ;;      Temps:          0       2       0       0       0
  1416 ;;      Totals:         0       2       0       0       0
  1417 ;;Total ram usage:        2 bytes
  1418 ;; Hardware stack levels used:    1
  1419 ;; Hardware stack levels required when called:    7
  1420 ;; This function calls:
  1421 ;;		_Traffic_Fsm
  1422 ;;		___lwdiv
  1423 ;; This function is called by:
  1424 ;;		_main
  1425 ;; This function uses a non-reentrant model
  1426 ;;
  1427                           
  1428                           
  1429                           ;psect for function _Timer1_Tick
  1430  16F7                     _Timer1_Tick:	
  1431  16F7                     l320:	
  1432                           ;timer13.c: 897: while(TMR1IF == 0);
  1433                           
  1434                           ;incstack = 0
  1435                           ; Regs used in _Timer1_Tick: [wreg-fsr0h+status,2+status,0+pclath+cstack]
  1436                           
  1437  16F7  1283               	bcf	3,5	;RP0=0, select bank0
  1438  16F8  1303               	bcf	3,6	;RP1=0, select bank0
  1439  16F9  1C0C               	btfss	12,0	;volatile
  1440  16FA  2EF7               	goto	l320
  1441                           
  1442                           ;timer13.c: 898: TMR1IF = 0;
  1443  16FB  100C               	bcf	12,0	;volatile
  1444                           
  1445                           ;timer13.c: 899: timer1_init = 65536ul - ((unsigned int)((unsigned long)((4000000UL) * (
      +                          50UL)) / (unsigned long)((4) * (1000UL)))/prescale_timer1);
  1446  16FC  086F               	movf	_prescale_timer1+1,w
  1447  16FD  00F1               	movwf	___lwdiv@divisor+1
  1448  16FE  086E               	movf	_prescale_timer1,w
  1449  16FF  00F0               	movwf	___lwdiv@divisor
  1450  1700  3050               	movlw	80
  1451  1701  00F2               	movwf	___lwdiv@dividend
  1452  1702  30C3               	movlw	195
  1453  1703  00F3               	movwf	___lwdiv@dividend+1
  1454  1704  160A  118A  25F1  160A  118A  	fcall	___lwdiv
  1455  1709  0970               	comf	?___lwdiv,w
  1456  170A  1283               	bcf	3,5	;RP0=0, select bank0
  1457  170B  1303               	bcf	3,6	;RP1=0, select bank0
  1458  170C  00E0               	movwf	??_Timer1_Tick
  1459  170D  0971               	comf	?___lwdiv+1,w
  1460  170E  00E1               	movwf	??_Timer1_Tick+1
  1461  170F  0AE0               	incf	??_Timer1_Tick,f
  1462  1710  1903               	skipnz
  1463  1711  0AE1               	incf	??_Timer1_Tick+1,f
  1464  1712  0860               	movf	??_Timer1_Tick,w
  1465  1713  00BC               	movwf	_timer1_init
  1466  1714  0861               	movf	??_Timer1_Tick+1,w
  1467  1715  00BD               	movwf	_timer1_init+1
  1468                           
  1469                           ;timer13.c: 900: TMR1H = timer1_init / 256ul;
  1470  1716  083D               	movf	_timer1_init+1,w
  1471  1717  008F               	movwf	15	;volatile
  1472                           
  1473                           ;timer13.c: 901: TMR1L = timer1_init % 256ul;
  1474  1718  083C               	movf	_timer1_init,w
  1475  1719  008E               	movwf	14	;volatile
  1476                           
  1477                           ;timer13.c: 902: if(++num_calls >= (1000UL)/(50UL))
  1478  171A  3001               	movlw	1
  1479  171B  1683               	bsf	3,5	;RP0=1, select bank1
  1480  171C  1303               	bcf	3,6	;RP1=0, select bank1
  1481  171D  07B4               	addwf	_num_calls^(0+128),f
  1482  171E  3000               	movlw	0
  1483  171F  1803               	skipnc
  1484  1720  3001               	movlw	1
  1485  1721  07B5               	addwf	(_num_calls+1)^(0+128),f
  1486  1722  3000               	movlw	0
  1487  1723  1803               	skipnc
  1488  1724  3001               	movlw	1
  1489  1725  07B6               	addwf	(_num_calls+2)^(0+128),f
  1490  1726  3000               	movlw	0
  1491  1727  1803               	skipnc
  1492  1728  3001               	movlw	1
  1493  1729  07B7               	addwf	(_num_calls+3)^(0+128),f
  1494  172A  0837               	movf	(_num_calls+3)^(0+128),w
  1495  172B  1D03               	btfss	3,2
  1496  172C  2F39               	goto	l2573
  1497  172D  0836               	movf	(_num_calls+2)^(0+128),w
  1498  172E  1D03               	btfss	3,2
  1499  172F  2F39               	goto	l2573
  1500  1730  0835               	movf	(_num_calls+1)^(0+128),w
  1501  1731  1D03               	btfss	3,2
  1502  1732  2F39               	goto	l2573
  1503  1733  3014               	movlw	20
  1504  1734  0234               	subwf	_num_calls^(0+128),w
  1505  1735  1D03               	skipz
  1506  1736  2F37               	goto	u1293
  1507  1737                     u1293:	
  1508  1737  1C03               	btfss	3,0
  1509  1738  0008               	return
  1510  1739                     l2573:	
  1511                           
  1512                           ;timer13.c: 903: {
  1513                           ;timer13.c: 904: Traffic_Fsm();
  1514  1739  120A  118A  2508   	fcall	_Traffic_Fsm
  1515                           
  1516                           ;timer13.c: 905: num_calls = 0;
  1517  173C  3000               	movlw	0
  1518  173D  1683               	bsf	3,5	;RP0=1, select bank1
  1519  173E  1303               	bcf	3,6	;RP1=0, select bank1
  1520  173F  00B7               	movwf	(_num_calls+3)^(0+128)
  1521  1740  3000               	movlw	0
  1522  1741  00B6               	movwf	(_num_calls+2)^(0+128)
  1523  1742  3000               	movlw	0
  1524  1743  00B5               	movwf	(_num_calls+1)^(0+128)
  1525  1744  3000               	movlw	0
  1526  1745  00B4               	movwf	_num_calls^(0+128)
  1527  1746  0008               	return
  1528  1747                     __end_of_Timer1_Tick:	
  1529                           
  1530                           	psect	text4
  1531  0508                     __ptext4:	
  1532 ;; *************** function _Traffic_Fsm *****************
  1533 ;; Defined at:
  1534 ;;		line 200 in file "timer13.c"
  1535 ;; Parameters:    Size  Location     Type
  1536 ;;		None
  1537 ;; Auto vars:     Size  Location     Type
  1538 ;;		None
  1539 ;; Return value:  Size  Location     Type
  1540 ;;                  1    wreg      void 
  1541 ;; Registers used:
  1542 ;;		wreg, fsr0l, fsr0h, status,2, status,0, pclath, cstack
  1543 ;; Tracked objects:
  1544 ;;		On entry : 0/0
  1545 ;;		On exit  : 0/0
  1546 ;;		Unchanged: 0/0
  1547 ;; Data sizes:     COMMON   BANK0   BANK1   BANK3   BANK2
  1548 ;;      Params:         0       0       0       0       0
  1549 ;;      Locals:         0       0       0       0       0
  1550 ;;      Temps:          0       0       0       0       0
  1551 ;;      Totals:         0       0       0       0       0
  1552 ;;Total ram usage:        0 bytes
  1553 ;; Hardware stack levels used:    1
  1554 ;; Hardware stack levels required when called:    6
  1555 ;; This function calls:
  1556 ;;		_Data_Str_Disp_LCD
  1557 ;;		_E_Go_Fsm_Proc
  1558 ;;		_E_Wait_Fsm_Proc
  1559 ;;		_Goto_XY_LCD_Disp
  1560 ;;		_N_Go_Fsm_Proc
  1561 ;;		_N_Wait_Fsm_Proc
  1562 ;;		_S_Go_Fsm_Proc
  1563 ;;		_S_Wait_Fsm_Proc
  1564 ;;		_Startup_E_Go_Fsm_Proc
  1565 ;;		_Startup_E_Wait_Fsm_Proc
  1566 ;;		_Startup_N_Go_Fsm_Proc
  1567 ;;		_Startup_N_Wait_Fsm_Proc
  1568 ;;		_Startup_S_Go_Fsm_Proc
  1569 ;;		_Startup_S_Wait_Fsm_Proc
  1570 ;;		_Startup_W_Go_Fsm_Proc
  1571 ;;		_Startup_W_Wait_Fsm_Proc
  1572 ;;		_W_Go_Fsm_Proc
  1573 ;;		_W_Wait_Fsm_Proc
  1574 ;; This function is called by:
  1575 ;;		_Timer1_Tick
  1576 ;; This function uses a non-reentrant model
  1577 ;;
  1578                           
  1579                           
  1580                           ;psect for function _Traffic_Fsm
  1581  0508                     _Traffic_Fsm:	
  1582                           
  1583                           ;timer13.c: 202: --cur_e_red_left_secs;
  1584                           
  1585                           ;incstack = 0
  1586                           ; Regs used in _Traffic_Fsm: [wreg-fsr0h+status,2+status,0+pclath+cstack]
  1587  0508  3001               	movlw	1
  1588  0509  1283               	bcf	3,5	;RP0=0, select bank0
  1589  050A  1303               	bcf	3,6	;RP1=0, select bank0
  1590  050B  02BA               	subwf	_cur_e_red_left_secs,f
  1591  050C  3000               	movlw	0
  1592  050D  1C03               	skipc
  1593  050E  03BB               	decf	_cur_e_red_left_secs+1,f
  1594  050F  02BB               	subwf	_cur_e_red_left_secs+1,f
  1595                           
  1596                           ;timer13.c: 203: --cur_e_yellow_left_secs;
  1597  0510  3001               	movlw	1
  1598  0511  02B8               	subwf	_cur_e_yellow_left_secs,f
  1599  0512  3000               	movlw	0
  1600  0513  1C03               	skipc
  1601  0514  03B9               	decf	_cur_e_yellow_left_secs+1,f
  1602  0515  02B9               	subwf	_cur_e_yellow_left_secs+1,f
  1603                           
  1604                           ;timer13.c: 204: --cur_e_green_left_secs;
  1605  0516  3001               	movlw	1
  1606  0517  02B6               	subwf	_cur_e_green_left_secs,f
  1607  0518  3000               	movlw	0
  1608  0519  1C03               	skipc
  1609  051A  03B7               	decf	_cur_e_green_left_secs+1,f
  1610  051B  02B7               	subwf	_cur_e_green_left_secs+1,f
  1611                           
  1612                           ;timer13.c: 207: --cur_w_red_left_secs;
  1613  051C  3001               	movlw	1
  1614  051D  02B2               	subwf	_cur_w_red_left_secs,f
  1615  051E  3000               	movlw	0
  1616  051F  1C03               	skipc
  1617  0520  03B3               	decf	_cur_w_red_left_secs+1,f
  1618  0521  02B3               	subwf	_cur_w_red_left_secs+1,f
  1619                           
  1620                           ;timer13.c: 208: --cur_w_yellow_left_secs;
  1621  0522  3001               	movlw	1
  1622  0523  02B0               	subwf	_cur_w_yellow_left_secs,f
  1623  0524  3000               	movlw	0
  1624  0525  1C03               	skipc
  1625  0526  03B1               	decf	_cur_w_yellow_left_secs+1,f
  1626  0527  02B1               	subwf	_cur_w_yellow_left_secs+1,f
  1627                           
  1628                           ;timer13.c: 209: --cur_w_green_left_secs;
  1629  0528  3001               	movlw	1
  1630  0529  02AE               	subwf	_cur_w_green_left_secs,f
  1631  052A  3000               	movlw	0
  1632  052B  1C03               	skipc
  1633  052C  03AF               	decf	_cur_w_green_left_secs+1,f
  1634  052D  02AF               	subwf	_cur_w_green_left_secs+1,f
  1635                           
  1636                           ;timer13.c: 212: --cur_n_red_left_secs;
  1637  052E  3001               	movlw	1
  1638  052F  02AA               	subwf	_cur_n_red_left_secs,f
  1639  0530  3000               	movlw	0
  1640  0531  1C03               	skipc
  1641  0532  03AB               	decf	_cur_n_red_left_secs+1,f
  1642  0533  02AB               	subwf	_cur_n_red_left_secs+1,f
  1643                           
  1644                           ;timer13.c: 213: --cur_n_yellow_left_secs;
  1645  0534  3001               	movlw	1
  1646  0535  02A8               	subwf	_cur_n_yellow_left_secs,f
  1647  0536  3000               	movlw	0
  1648  0537  1C03               	skipc
  1649  0538  03A9               	decf	_cur_n_yellow_left_secs+1,f
  1650  0539  02A9               	subwf	_cur_n_yellow_left_secs+1,f
  1651                           
  1652                           ;timer13.c: 214: --cur_n_green_left_secs;
  1653  053A  3001               	movlw	1
  1654  053B  02A6               	subwf	_cur_n_green_left_secs,f
  1655  053C  3000               	movlw	0
  1656  053D  1C03               	skipc
  1657  053E  03A7               	decf	_cur_n_green_left_secs+1,f
  1658  053F  02A7               	subwf	_cur_n_green_left_secs+1,f
  1659                           
  1660                           ;timer13.c: 217: --cur_s_red_left_secs;
  1661  0540  3001               	movlw	1
  1662  0541  02A4               	subwf	_cur_s_red_left_secs,f
  1663  0542  3000               	movlw	0
  1664  0543  1C03               	skipc
  1665  0544  03A5               	decf	_cur_s_red_left_secs+1,f
  1666  0545  02A5               	subwf	_cur_s_red_left_secs+1,f
  1667                           
  1668                           ;timer13.c: 218: --cur_s_yellow_left_secs;
  1669  0546  3001               	movlw	1
  1670  0547  02A2               	subwf	_cur_s_yellow_left_secs,f
  1671  0548  3000               	movlw	0
  1672  0549  1C03               	skipc
  1673  054A  03A3               	decf	_cur_s_yellow_left_secs+1,f
  1674  054B  02A3               	subwf	_cur_s_yellow_left_secs+1,f
  1675                           
  1676                           ;timer13.c: 219: --cur_s_green_left_secs;
  1677  054C  3001               	movlw	1
  1678  054D  02A0               	subwf	_cur_s_green_left_secs,f
  1679  054E  3000               	movlw	0
  1680  054F  1C03               	skipc
  1681  0550  03A1               	decf	_cur_s_green_left_secs+1,f
  1682  0551  02A1               	subwf	_cur_s_green_left_secs+1,f
  1683                           
  1684                           ;timer13.c: 221: switch(traffic_fsm_state)
  1685  0552  2FB1               	goto	l2505
  1686  0553                     l2295:	
  1687                           ;timer13.c: 222: {
  1688                           ;timer13.c: 223: case (1):
  1689                           
  1690                           
  1691                           ;timer13.c: 224: ++each_fsmstate_secs;
  1692  0553  3001               	movlw	1
  1693  0554  07BE               	addwf	_each_fsmstate_secs,f
  1694  0555  1803               	skipnc
  1695  0556  0ABF               	incf	_each_fsmstate_secs+1,f
  1696  0557  3000               	movlw	0
  1697  0558  07BF               	addwf	_each_fsmstate_secs+1,f
  1698                           
  1699                           ;timer13.c: 226: if(each_fsmstate_secs >= e_green_duration )
  1700  0559  0869               	movf	_e_green_duration+1,w
  1701  055A  023F               	subwf	_each_fsmstate_secs+1,w
  1702  055B  1D03               	skipz
  1703  055C  2D5F               	goto	u935
  1704  055D  0868               	movf	_e_green_duration,w
  1705  055E  023E               	subwf	_each_fsmstate_secs,w
  1706  055F                     u935:	
  1707  055F  1C03               	skipc
  1708  0560  2D6B               	goto	l2303
  1709                           
  1710                           ;timer13.c: 227: {
  1711                           ;timer13.c: 228: each_fsmstate_secs= 0;
  1712  0561  01BE               	clrf	_each_fsmstate_secs
  1713  0562  01BF               	clrf	_each_fsmstate_secs+1
  1714                           
  1715                           ;timer13.c: 229: traffic_fsm_state = (3);
  1716  0563  3003               	movlw	3
  1717  0564  00EA               	movwf	_traffic_fsm_state
  1718  0565  3000               	movlw	0
  1719  0566  00EB               	movwf	_traffic_fsm_state+1
  1720                           
  1721                           ;timer13.c: 230: Startup_E_Wait_Fsm_Proc();
  1722  0567  120A  158A  2444   	fcall	_Startup_E_Wait_Fsm_Proc
  1723                           
  1724                           ;timer13.c: 231: break;
  1725  056A  0008               	return
  1726  056B                     l2303:	
  1727                           
  1728                           ;timer13.c: 232: }
  1729                           ;timer13.c: 233: E_Go_Fsm_Proc();
  1730  056B  120A  158A  2039   	fcall	_E_Go_Fsm_Proc
  1731                           
  1732                           ;timer13.c: 234: break;
  1733  056E  0008               	return
  1734  056F                     l2305:	
  1735                           ;timer13.c: 235: case (3):
  1736                           
  1737                           
  1738                           ;timer13.c: 236: ++each_fsmstate_secs;
  1739  056F  3001               	movlw	1
  1740  0570  1283               	bcf	3,5	;RP0=0, select bank0
  1741  0571  1303               	bcf	3,6	;RP1=0, select bank0
  1742  0572  07BE               	addwf	_each_fsmstate_secs,f
  1743  0573  1803               	skipnc
  1744  0574  0ABF               	incf	_each_fsmstate_secs+1,f
  1745  0575  3000               	movlw	0
  1746  0576  07BF               	addwf	_each_fsmstate_secs+1,f
  1747                           
  1748                           ;timer13.c: 238: if(each_fsmstate_secs >= (5) )
  1749  0577  3000               	movlw	0
  1750  0578  023F               	subwf	_each_fsmstate_secs+1,w
  1751  0579  3005               	movlw	5
  1752  057A  1903               	skipnz
  1753  057B  023E               	subwf	_each_fsmstate_secs,w
  1754  057C  1C03               	skipc
  1755  057D  2DE5               	goto	l2345
  1756                           
  1757                           ;timer13.c: 239: {
  1758                           ;timer13.c: 240: each_fsmstate_secs = 0;
  1759  057E  01BE               	clrf	_each_fsmstate_secs
  1760  057F  01BF               	clrf	_each_fsmstate_secs+1
  1761                           
  1762                           ;timer13.c: 241: if(RB2 == (1) && RB3 == (1))
  1763  0580  1906               	btfsc	6,2	;volatile
  1764  0581  1D86               	btfss	6,3	;volatile
  1765  0582  2D96               	goto	l214
  1766                           
  1767                           ;timer13.c: 242: {
  1768                           ;timer13.c: 243: w_green_duration = (10) + (5u) + (5u);
  1769  0583  3014               	movlw	20
  1770  0584  00E6               	movwf	_w_green_duration
  1771  0585  3000               	movlw	0
  1772  0586  00E7               	movwf	_w_green_duration+1
  1773                           
  1774                           ;timer13.c: 244: Goto_XY_LCD_Disp((2u), (14U));
  1775  0587  3002               	movlw	2
  1776  0588  00F4               	movwf	Goto_XY_LCD_Disp@line_num
  1777  0589  3000               	movlw	0
  1778  058A  00F5               	movwf	Goto_XY_LCD_Disp@line_num+1
  1779  058B  300E               	movlw	14
  1780  058C  00F6               	movwf	Goto_XY_LCD_Disp@col_num
  1781  058D  3000               	movlw	0
  1782  058E  00F7               	movwf	Goto_XY_LCD_Disp@col_num+1
  1783  058F  160A  118A  26AD  120A  118A  	fcall	_Goto_XY_LCD_Disp
  1784                           
  1785                           ;timer13.c: 245: Data_Str_Disp_LCD(level2_traffic_disp);
  1786  0594  3033               	movlw	(low ((_level2_traffic_disp-__stringbase)| (0+32768)))& (0+255)
  1787  0595  2DD6               	goto	L1
  1788  0596                     l214:	
  1789                           ;timer13.c: 246: }
  1790                           
  1791                           
  1792                           ;timer13.c: 247: else if(RB2 ==(1) && RB3 == (0))
  1793  0596  1906               	btfsc	6,2	;volatile
  1794  0597  1986               	btfsc	6,3	;volatile
  1795  0598  2DAC               	goto	l216
  1796                           
  1797                           ;timer13.c: 248: {
  1798                           ;timer13.c: 249: w_green_duration = (10) + (5u);
  1799  0599  300F               	movlw	15
  1800  059A  00E6               	movwf	_w_green_duration
  1801  059B  3000               	movlw	0
  1802  059C  00E7               	movwf	_w_green_duration+1
  1803                           
  1804                           ;timer13.c: 250: Goto_XY_LCD_Disp((2u), (14U));
  1805  059D  3002               	movlw	2
  1806  059E  00F4               	movwf	Goto_XY_LCD_Disp@line_num
  1807  059F  3000               	movlw	0
  1808  05A0  00F5               	movwf	Goto_XY_LCD_Disp@line_num+1
  1809  05A1  300E               	movlw	14
  1810  05A2  00F6               	movwf	Goto_XY_LCD_Disp@col_num
  1811  05A3  3000               	movlw	0
  1812  05A4  00F7               	movwf	Goto_XY_LCD_Disp@col_num+1
  1813  05A5  160A  118A  26AD  120A  118A  	fcall	_Goto_XY_LCD_Disp
  1814                           
  1815                           ;timer13.c: 251: Data_Str_Disp_LCD(level1_traffic_disp);
  1816  05AA  3035               	movlw	(low ((_level1_traffic_disp-__stringbase)| (0+32768)))& (0+255)
  1817  05AB  2DD6               	goto	L1
  1818  05AC                     l216:	
  1819                           ;timer13.c: 252: }
  1820                           
  1821                           
  1822                           ;timer13.c: 253: else if(RB2 == (0) && RB3 == (0))
  1823  05AC  1D06               	btfss	6,2	;volatile
  1824  05AD  1986               	btfsc	6,3	;volatile
  1825  05AE  2DC2               	goto	l2335
  1826                           
  1827                           ;timer13.c: 254: {
  1828                           ;timer13.c: 255: w_green_duration = (10);
  1829  05AF  300A               	movlw	10
  1830  05B0  00E6               	movwf	_w_green_duration
  1831  05B1  3000               	movlw	0
  1832  05B2  00E7               	movwf	_w_green_duration+1
  1833                           
  1834                           ;timer13.c: 256: Goto_XY_LCD_Disp((2u), (14U));
  1835  05B3  3002               	movlw	2
  1836  05B4  00F4               	movwf	Goto_XY_LCD_Disp@line_num
  1837  05B5  3000               	movlw	0
  1838  05B6  00F5               	movwf	Goto_XY_LCD_Disp@line_num+1
  1839  05B7  300E               	movlw	14
  1840  05B8  00F6               	movwf	Goto_XY_LCD_Disp@col_num
  1841  05B9  3000               	movlw	0
  1842  05BA  00F7               	movwf	Goto_XY_LCD_Disp@col_num+1
  1843  05BB  160A  118A  26AD  120A  118A  	fcall	_Goto_XY_LCD_Disp
  1844                           
  1845                           ;timer13.c: 257: Data_Str_Disp_LCD(level0_traffic_disp);
  1846  05C0  3037               	movlw	(low ((_level0_traffic_disp-__stringbase)| (0+32768)))& (0+255)
  1847  05C1  2DD6               	goto	L1
  1848  05C2                     l2335:	
  1849                           ;timer13.c: 258: }
  1850                           
  1851                           
  1852                           ;timer13.c: 259: else
  1853                           ;timer13.c: 260: {
  1854                           ;timer13.c: 262: w_green_duration = (10) + (5u) + (5u);
  1855  05C2  3014               	movlw	20
  1856  05C3  1283               	bcf	3,5	;RP0=0, select bank0
  1857  05C4  1303               	bcf	3,6	;RP1=0, select bank0
  1858  05C5  00E6               	movwf	_w_green_duration
  1859  05C6  3000               	movlw	0
  1860  05C7  00E7               	movwf	_w_green_duration+1
  1861                           
  1862                           ;timer13.c: 263: Goto_XY_LCD_Disp((2u), (14U));
  1863  05C8  3002               	movlw	2
  1864  05C9  00F4               	movwf	Goto_XY_LCD_Disp@line_num
  1865  05CA  3000               	movlw	0
  1866  05CB  00F5               	movwf	Goto_XY_LCD_Disp@line_num+1
  1867  05CC  300E               	movlw	14
  1868  05CD  00F6               	movwf	Goto_XY_LCD_Disp@col_num
  1869  05CE  3000               	movlw	0
  1870  05CF  00F7               	movwf	Goto_XY_LCD_Disp@col_num+1
  1871  05D0  160A  118A  26AD  120A  118A  	fcall	_Goto_XY_LCD_Disp
  1872                           
  1873                           ;timer13.c: 264: Data_Str_Disp_LCD(error_traffic_disp);
  1874  05D5  3031               	movlw	(low ((_error_traffic_disp-__stringbase)| (0+32768)))& (0+255)
  1875  05D6                     L1:	
  1876  05D6  160A  118A  25D5  120A  118A  	fcall	_Data_Str_Disp_LCD
  1877                           
  1878                           ;timer13.c: 265: }
  1879                           ;timer13.c: 266: traffic_fsm_state = (4);
  1880  05DB  3004               	movlw	4
  1881  05DC  1283               	bcf	3,5	;RP0=0, select bank0
  1882  05DD  1303               	bcf	3,6	;RP1=0, select bank0
  1883  05DE  00EA               	movwf	_traffic_fsm_state
  1884  05DF  3000               	movlw	0
  1885  05E0  00EB               	movwf	_traffic_fsm_state+1
  1886                           
  1887                           ;timer13.c: 267: Startup_W_Go_Fsm_Proc();
  1888  05E1  120A  118A  22EC   	fcall	_Startup_W_Go_Fsm_Proc
  1889                           
  1890                           ;timer13.c: 268: break;
  1891  05E4  0008               	return
  1892  05E5                     l2345:	
  1893                           
  1894                           ;timer13.c: 269: }
  1895                           ;timer13.c: 270: E_Wait_Fsm_Proc();
  1896  05E5  120A  158A  209E   	fcall	_E_Wait_Fsm_Proc
  1897                           
  1898                           ;timer13.c: 271: break;
  1899  05E8  0008               	return
  1900  05E9                     l2347:	
  1901                           ;timer13.c: 272: case (4):
  1902                           
  1903                           
  1904                           ;timer13.c: 273: ++each_fsmstate_secs;
  1905  05E9  3001               	movlw	1
  1906  05EA  1283               	bcf	3,5	;RP0=0, select bank0
  1907  05EB  1303               	bcf	3,6	;RP1=0, select bank0
  1908  05EC  07BE               	addwf	_each_fsmstate_secs,f
  1909  05ED  1803               	skipnc
  1910  05EE  0ABF               	incf	_each_fsmstate_secs+1,f
  1911  05EF  3000               	movlw	0
  1912  05F0  07BF               	addwf	_each_fsmstate_secs+1,f
  1913                           
  1914                           ;timer13.c: 275: if(each_fsmstate_secs >= w_green_duration )
  1915  05F1  0867               	movf	_w_green_duration+1,w
  1916  05F2  023F               	subwf	_each_fsmstate_secs+1,w
  1917  05F3  1D03               	skipz
  1918  05F4  2DF7               	goto	u1015
  1919  05F5  0866               	movf	_w_green_duration,w
  1920  05F6  023E               	subwf	_each_fsmstate_secs,w
  1921  05F7                     u1015:	
  1922  05F7  1C03               	skipc
  1923  05F8  2E03               	goto	l2355
  1924                           
  1925                           ;timer13.c: 276: {
  1926                           ;timer13.c: 277: each_fsmstate_secs= 0;
  1927  05F9  01BE               	clrf	_each_fsmstate_secs
  1928  05FA  01BF               	clrf	_each_fsmstate_secs+1
  1929                           
  1930                           ;timer13.c: 278: traffic_fsm_state = (6);
  1931  05FB  3006               	movlw	6
  1932  05FC  00EA               	movwf	_traffic_fsm_state
  1933  05FD  3000               	movlw	0
  1934  05FE  00EB               	movwf	_traffic_fsm_state+1
  1935                           
  1936                           ;timer13.c: 279: Startup_W_Wait_Fsm_Proc();
  1937  05FF  120A  158A  261E   	fcall	_Startup_W_Wait_Fsm_Proc
  1938                           
  1939                           ;timer13.c: 280: break;
  1940  0602  0008               	return
  1941  0603                     l2355:	
  1942                           
  1943                           ;timer13.c: 281: }
  1944                           ;timer13.c: 282: W_Go_Fsm_Proc();
  1945  0603  120A  158A  2297   	fcall	_W_Go_Fsm_Proc
  1946                           
  1947                           ;timer13.c: 283: break;
  1948  0606  0008               	return
  1949  0607                     l2357:	
  1950                           ;timer13.c: 284: case (6):
  1951                           
  1952                           
  1953                           ;timer13.c: 285: ++each_fsmstate_secs;
  1954  0607  3001               	movlw	1
  1955  0608  1283               	bcf	3,5	;RP0=0, select bank0
  1956  0609  1303               	bcf	3,6	;RP1=0, select bank0
  1957  060A  07BE               	addwf	_each_fsmstate_secs,f
  1958  060B  1803               	skipnc
  1959  060C  0ABF               	incf	_each_fsmstate_secs+1,f
  1960  060D  3000               	movlw	0
  1961  060E  07BF               	addwf	_each_fsmstate_secs+1,f
  1962                           
  1963                           ;timer13.c: 287: if(each_fsmstate_secs >= (5) )
  1964  060F  3000               	movlw	0
  1965  0610  023F               	subwf	_each_fsmstate_secs+1,w
  1966  0611  3005               	movlw	5
  1967  0612  1903               	skipnz
  1968  0613  023E               	subwf	_each_fsmstate_secs,w
  1969  0614  1C03               	skipc
  1970  0615  2E7D               	goto	l2397
  1971                           
  1972                           ;timer13.c: 288: {
  1973                           ;timer13.c: 289: each_fsmstate_secs = 0;
  1974  0616  01BE               	clrf	_each_fsmstate_secs
  1975  0617  01BF               	clrf	_each_fsmstate_secs+1
  1976                           
  1977                           ;timer13.c: 290: if(RB4 == (1) && RB5 == (1))
  1978  0618  1A06               	btfsc	6,4	;volatile
  1979  0619  1E86               	btfss	6,5	;volatile
  1980  061A  2E2E               	goto	l224
  1981                           
  1982                           ;timer13.c: 291: {
  1983                           ;timer13.c: 292: n_green_duration = (10) + (5u) + (5u);
  1984  061B  3014               	movlw	20
  1985  061C  00E4               	movwf	_n_green_duration
  1986  061D  3000               	movlw	0
  1987  061E  00E5               	movwf	_n_green_duration+1
  1988                           
  1989                           ;timer13.c: 293: Goto_XY_LCD_Disp((3u), (14U));
  1990  061F  3003               	movlw	3
  1991  0620  00F4               	movwf	Goto_XY_LCD_Disp@line_num
  1992  0621  3000               	movlw	0
  1993  0622  00F5               	movwf	Goto_XY_LCD_Disp@line_num+1
  1994  0623  300E               	movlw	14
  1995  0624  00F6               	movwf	Goto_XY_LCD_Disp@col_num
  1996  0625  3000               	movlw	0
  1997  0626  00F7               	movwf	Goto_XY_LCD_Disp@col_num+1
  1998  0627  160A  118A  26AD  120A  118A  	fcall	_Goto_XY_LCD_Disp
  1999                           
  2000                           ;timer13.c: 294: Data_Str_Disp_LCD(level2_traffic_disp);
  2001  062C  3033               	movlw	(low ((_level2_traffic_disp-__stringbase)| (0+32768)))& (0+255)
  2002  062D  2E6E               	goto	L2
  2003  062E                     l224:	
  2004                           ;timer13.c: 295: }
  2005                           
  2006                           
  2007                           ;timer13.c: 296: else if(RB4 ==(1) && RB5 == (0))
  2008  062E  1A06               	btfsc	6,4	;volatile
  2009  062F  1A86               	btfsc	6,5	;volatile
  2010  0630  2E44               	goto	l226
  2011                           
  2012                           ;timer13.c: 297: {
  2013                           ;timer13.c: 298: n_green_duration = (10) + (5u);
  2014  0631  300F               	movlw	15
  2015  0632  00E4               	movwf	_n_green_duration
  2016  0633  3000               	movlw	0
  2017  0634  00E5               	movwf	_n_green_duration+1
  2018                           
  2019                           ;timer13.c: 299: Goto_XY_LCD_Disp((3u), (14U));
  2020  0635  3003               	movlw	3
  2021  0636  00F4               	movwf	Goto_XY_LCD_Disp@line_num
  2022  0637  3000               	movlw	0
  2023  0638  00F5               	movwf	Goto_XY_LCD_Disp@line_num+1
  2024  0639  300E               	movlw	14
  2025  063A  00F6               	movwf	Goto_XY_LCD_Disp@col_num
  2026  063B  3000               	movlw	0
  2027  063C  00F7               	movwf	Goto_XY_LCD_Disp@col_num+1
  2028  063D  160A  118A  26AD  120A  118A  	fcall	_Goto_XY_LCD_Disp
  2029                           
  2030                           ;timer13.c: 300: Data_Str_Disp_LCD(level1_traffic_disp);
  2031  0642  3035               	movlw	(low ((_level1_traffic_disp-__stringbase)| (0+32768)))& (0+255)
  2032  0643  2E6E               	goto	L2
  2033  0644                     l226:	
  2034                           ;timer13.c: 301: }
  2035                           
  2036                           
  2037                           ;timer13.c: 302: else if(RB4 == (0) && RB5 == (0))
  2038  0644  1E06               	btfss	6,4	;volatile
  2039  0645  1A86               	btfsc	6,5	;volatile
  2040  0646  2E5A               	goto	l2387
  2041                           
  2042                           ;timer13.c: 303: {
  2043                           ;timer13.c: 304: n_green_duration = (10);
  2044  0647  300A               	movlw	10
  2045  0648  00E4               	movwf	_n_green_duration
  2046  0649  3000               	movlw	0
  2047  064A  00E5               	movwf	_n_green_duration+1
  2048                           
  2049                           ;timer13.c: 305: Goto_XY_LCD_Disp((3u), (14U));
  2050  064B  3003               	movlw	3
  2051  064C  00F4               	movwf	Goto_XY_LCD_Disp@line_num
  2052  064D  3000               	movlw	0
  2053  064E  00F5               	movwf	Goto_XY_LCD_Disp@line_num+1
  2054  064F  300E               	movlw	14
  2055  0650  00F6               	movwf	Goto_XY_LCD_Disp@col_num
  2056  0651  3000               	movlw	0
  2057  0652  00F7               	movwf	Goto_XY_LCD_Disp@col_num+1
  2058  0653  160A  118A  26AD  120A  118A  	fcall	_Goto_XY_LCD_Disp
  2059                           
  2060                           ;timer13.c: 306: Data_Str_Disp_LCD(level0_traffic_disp);
  2061  0658  3037               	movlw	(low ((_level0_traffic_disp-__stringbase)| (0+32768)))& (0+255)
  2062  0659  2E6E               	goto	L2
  2063  065A                     l2387:	
  2064                           ;timer13.c: 307: }
  2065                           
  2066                           
  2067                           ;timer13.c: 308: else
  2068                           ;timer13.c: 309: {
  2069                           ;timer13.c: 311: n_green_duration = (10) + (5u) + (5u);
  2070  065A  3014               	movlw	20
  2071  065B  1283               	bcf	3,5	;RP0=0, select bank0
  2072  065C  1303               	bcf	3,6	;RP1=0, select bank0
  2073  065D  00E4               	movwf	_n_green_duration
  2074  065E  3000               	movlw	0
  2075  065F  00E5               	movwf	_n_green_duration+1
  2076                           
  2077                           ;timer13.c: 312: Goto_XY_LCD_Disp((3u), (14U));
  2078  0660  3003               	movlw	3
  2079  0661  00F4               	movwf	Goto_XY_LCD_Disp@line_num
  2080  0662  3000               	movlw	0
  2081  0663  00F5               	movwf	Goto_XY_LCD_Disp@line_num+1
  2082  0664  300E               	movlw	14
  2083  0665  00F6               	movwf	Goto_XY_LCD_Disp@col_num
  2084  0666  3000               	movlw	0
  2085  0667  00F7               	movwf	Goto_XY_LCD_Disp@col_num+1
  2086  0668  160A  118A  26AD  120A  118A  	fcall	_Goto_XY_LCD_Disp
  2087                           
  2088                           ;timer13.c: 313: Data_Str_Disp_LCD(error_traffic_disp);
  2089  066D  3031               	movlw	(low ((_error_traffic_disp-__stringbase)| (0+32768)))& (0+255)
  2090  066E                     L2:	
  2091  066E  160A  118A  25D5  120A  118A  	fcall	_Data_Str_Disp_LCD
  2092                           
  2093                           ;timer13.c: 314: }
  2094                           ;timer13.c: 315: traffic_fsm_state =(7);
  2095  0673  3007               	movlw	7
  2096  0674  1283               	bcf	3,5	;RP0=0, select bank0
  2097  0675  1303               	bcf	3,6	;RP1=0, select bank0
  2098  0676  00EA               	movwf	_traffic_fsm_state
  2099  0677  3000               	movlw	0
  2100  0678  00EB               	movwf	_traffic_fsm_state+1
  2101                           
  2102                           ;timer13.c: 316: Startup_N_Go_Fsm_Proc();
  2103  0679  120A  118A  23F6   	fcall	_Startup_N_Go_Fsm_Proc
  2104                           
  2105                           ;timer13.c: 317: break;
  2106  067C  0008               	return
  2107  067D                     l2397:	
  2108                           
  2109                           ;timer13.c: 318: }
  2110                           ;timer13.c: 319: W_Wait_Fsm_Proc();
  2111  067D  120A  158A  22FC   	fcall	_W_Wait_Fsm_Proc
  2112                           
  2113                           ;timer13.c: 320: break;
  2114  0680  0008               	return
  2115  0681                     l2399:	
  2116                           ;timer13.c: 321: case (7):
  2117                           
  2118                           
  2119                           ;timer13.c: 322: ++each_fsmstate_secs;
  2120  0681  3001               	movlw	1
  2121  0682  1283               	bcf	3,5	;RP0=0, select bank0
  2122  0683  1303               	bcf	3,6	;RP1=0, select bank0
  2123  0684  07BE               	addwf	_each_fsmstate_secs,f
  2124  0685  1803               	skipnc
  2125  0686  0ABF               	incf	_each_fsmstate_secs+1,f
  2126  0687  3000               	movlw	0
  2127  0688  07BF               	addwf	_each_fsmstate_secs+1,f
  2128                           
  2129                           ;timer13.c: 324: if(each_fsmstate_secs >= n_green_duration )
  2130  0689  0865               	movf	_n_green_duration+1,w
  2131  068A  023F               	subwf	_each_fsmstate_secs+1,w
  2132  068B  1D03               	skipz
  2133  068C  2E8F               	goto	u1095
  2134  068D  0864               	movf	_n_green_duration,w
  2135  068E  023E               	subwf	_each_fsmstate_secs,w
  2136  068F                     u1095:	
  2137  068F  1C03               	skipc
  2138  0690  2E9B               	goto	l2407
  2139                           
  2140                           ;timer13.c: 325: {
  2141                           ;timer13.c: 326: each_fsmstate_secs= 0;
  2142  0691  01BE               	clrf	_each_fsmstate_secs
  2143  0692  01BF               	clrf	_each_fsmstate_secs+1
  2144                           
  2145                           ;timer13.c: 327: traffic_fsm_state = (9);
  2146  0693  3009               	movlw	9
  2147  0694  00EA               	movwf	_traffic_fsm_state
  2148  0695  3000               	movlw	0
  2149  0696  00EB               	movwf	_traffic_fsm_state+1
  2150                           
  2151                           ;timer13.c: 328: Startup_N_Wait_Fsm_Proc();
  2152  0697  120A  158A  2531   	fcall	_Startup_N_Wait_Fsm_Proc
  2153                           
  2154                           ;timer13.c: 329: break;
  2155  069A  0008               	return
  2156  069B                     l2407:	
  2157                           
  2158                           ;timer13.c: 330: }
  2159                           ;timer13.c: 331: N_Go_Fsm_Proc();
  2160  069B  120A  158A  2103   	fcall	_N_Go_Fsm_Proc
  2161                           
  2162                           ;timer13.c: 332: break;
  2163  069E  0008               	return
  2164  069F                     l2409:	
  2165                           ;timer13.c: 333: case (9):
  2166                           
  2167                           
  2168                           ;timer13.c: 334: ++each_fsmstate_secs;
  2169  069F  3001               	movlw	1
  2170  06A0  1283               	bcf	3,5	;RP0=0, select bank0
  2171  06A1  1303               	bcf	3,6	;RP1=0, select bank0
  2172  06A2  07BE               	addwf	_each_fsmstate_secs,f
  2173  06A3  1803               	skipnc
  2174  06A4  0ABF               	incf	_each_fsmstate_secs+1,f
  2175  06A5  3000               	movlw	0
  2176  06A6  07BF               	addwf	_each_fsmstate_secs+1,f
  2177                           
  2178                           ;timer13.c: 336: if(each_fsmstate_secs >= (5) )
  2179  06A7  3000               	movlw	0
  2180  06A8  023F               	subwf	_each_fsmstate_secs+1,w
  2181  06A9  3005               	movlw	5
  2182  06AA  1903               	skipnz
  2183  06AB  023E               	subwf	_each_fsmstate_secs,w
  2184  06AC  1C03               	skipc
  2185  06AD  2F15               	goto	l2449
  2186                           
  2187                           ;timer13.c: 337: {
  2188                           ;timer13.c: 338: each_fsmstate_secs = 0;
  2189  06AE  01BE               	clrf	_each_fsmstate_secs
  2190  06AF  01BF               	clrf	_each_fsmstate_secs+1
  2191                           
  2192                           ;timer13.c: 339: if(RB6 == (1) && RB7 == (1))
  2193  06B0  1B06               	btfsc	6,6	;volatile
  2194  06B1  1F86               	btfss	6,7	;volatile
  2195  06B2  2EC6               	goto	l234
  2196                           
  2197                           ;timer13.c: 340: {
  2198                           ;timer13.c: 341: s_green_duration = (10) + (5u) + (5u);
  2199  06B3  3014               	movlw	20
  2200  06B4  00E2               	movwf	_s_green_duration
  2201  06B5  3000               	movlw	0
  2202  06B6  00E3               	movwf	_s_green_duration+1
  2203                           
  2204                           ;timer13.c: 342: Goto_XY_LCD_Disp((4u), (14U));
  2205  06B7  3004               	movlw	4
  2206  06B8  00F4               	movwf	Goto_XY_LCD_Disp@line_num
  2207  06B9  3000               	movlw	0
  2208  06BA  00F5               	movwf	Goto_XY_LCD_Disp@line_num+1
  2209  06BB  300E               	movlw	14
  2210  06BC  00F6               	movwf	Goto_XY_LCD_Disp@col_num
  2211  06BD  3000               	movlw	0
  2212  06BE  00F7               	movwf	Goto_XY_LCD_Disp@col_num+1
  2213  06BF  160A  118A  26AD  120A  118A  	fcall	_Goto_XY_LCD_Disp
  2214                           
  2215                           ;timer13.c: 343: Data_Str_Disp_LCD(level2_traffic_disp);
  2216  06C4  3033               	movlw	(low ((_level2_traffic_disp-__stringbase)| (0+32768)))& (0+255)
  2217  06C5  2F06               	goto	L3
  2218  06C6                     l234:	
  2219                           ;timer13.c: 344: }
  2220                           
  2221                           
  2222                           ;timer13.c: 345: else if(RB6 ==(1) && RB7 == (0))
  2223  06C6  1B06               	btfsc	6,6	;volatile
  2224  06C7  1B86               	btfsc	6,7	;volatile
  2225  06C8  2EDC               	goto	l236
  2226                           
  2227                           ;timer13.c: 346: {
  2228                           ;timer13.c: 347: s_green_duration = (10) + (5u);
  2229  06C9  300F               	movlw	15
  2230  06CA  00E2               	movwf	_s_green_duration
  2231  06CB  3000               	movlw	0
  2232  06CC  00E3               	movwf	_s_green_duration+1
  2233                           
  2234                           ;timer13.c: 348: Goto_XY_LCD_Disp((4u), (14U));
  2235  06CD  3004               	movlw	4
  2236  06CE  00F4               	movwf	Goto_XY_LCD_Disp@line_num
  2237  06CF  3000               	movlw	0
  2238  06D0  00F5               	movwf	Goto_XY_LCD_Disp@line_num+1
  2239  06D1  300E               	movlw	14
  2240  06D2  00F6               	movwf	Goto_XY_LCD_Disp@col_num
  2241  06D3  3000               	movlw	0
  2242  06D4  00F7               	movwf	Goto_XY_LCD_Disp@col_num+1
  2243  06D5  160A  118A  26AD  120A  118A  	fcall	_Goto_XY_LCD_Disp
  2244                           
  2245                           ;timer13.c: 349: Data_Str_Disp_LCD(level1_traffic_disp);
  2246  06DA  3035               	movlw	(low ((_level1_traffic_disp-__stringbase)| (0+32768)))& (0+255)
  2247  06DB  2F06               	goto	L3
  2248  06DC                     l236:	
  2249                           ;timer13.c: 350: }
  2250                           
  2251                           
  2252                           ;timer13.c: 351: else if(RB6 == (0) && RB7 == (0))
  2253  06DC  1F06               	btfss	6,6	;volatile
  2254  06DD  1B86               	btfsc	6,7	;volatile
  2255  06DE  2EF2               	goto	l2439
  2256                           
  2257                           ;timer13.c: 352: {
  2258                           ;timer13.c: 353: s_green_duration = (10);
  2259  06DF  300A               	movlw	10
  2260  06E0  00E2               	movwf	_s_green_duration
  2261  06E1  3000               	movlw	0
  2262  06E2  00E3               	movwf	_s_green_duration+1
  2263                           
  2264                           ;timer13.c: 354: Goto_XY_LCD_Disp((4u), (14U));
  2265  06E3  3004               	movlw	4
  2266  06E4  00F4               	movwf	Goto_XY_LCD_Disp@line_num
  2267  06E5  3000               	movlw	0
  2268  06E6  00F5               	movwf	Goto_XY_LCD_Disp@line_num+1
  2269  06E7  300E               	movlw	14
  2270  06E8  00F6               	movwf	Goto_XY_LCD_Disp@col_num
  2271  06E9  3000               	movlw	0
  2272  06EA  00F7               	movwf	Goto_XY_LCD_Disp@col_num+1
  2273  06EB  160A  118A  26AD  120A  118A  	fcall	_Goto_XY_LCD_Disp
  2274                           
  2275                           ;timer13.c: 355: Data_Str_Disp_LCD(level0_traffic_disp);
  2276  06F0  3037               	movlw	(low ((_level0_traffic_disp-__stringbase)| (0+32768)))& (0+255)
  2277  06F1  2F06               	goto	L3
  2278  06F2                     l2439:	
  2279                           ;timer13.c: 356: }
  2280                           
  2281                           
  2282                           ;timer13.c: 357: else
  2283                           ;timer13.c: 358: {
  2284                           ;timer13.c: 360: s_green_duration = (10) + (5u) + (5u);
  2285  06F2  3014               	movlw	20
  2286  06F3  1283               	bcf	3,5	;RP0=0, select bank0
  2287  06F4  1303               	bcf	3,6	;RP1=0, select bank0
  2288  06F5  00E2               	movwf	_s_green_duration
  2289  06F6  3000               	movlw	0
  2290  06F7  00E3               	movwf	_s_green_duration+1
  2291                           
  2292                           ;timer13.c: 361: Goto_XY_LCD_Disp((4u), (14U));
  2293  06F8  3004               	movlw	4
  2294  06F9  00F4               	movwf	Goto_XY_LCD_Disp@line_num
  2295  06FA  3000               	movlw	0
  2296  06FB  00F5               	movwf	Goto_XY_LCD_Disp@line_num+1
  2297  06FC  300E               	movlw	14
  2298  06FD  00F6               	movwf	Goto_XY_LCD_Disp@col_num
  2299  06FE  3000               	movlw	0
  2300  06FF  00F7               	movwf	Goto_XY_LCD_Disp@col_num+1
  2301  0700  160A  118A  26AD  120A  118A  	fcall	_Goto_XY_LCD_Disp
  2302                           
  2303                           ;timer13.c: 362: Data_Str_Disp_LCD(error_traffic_disp);
  2304  0705  3031               	movlw	(low ((_error_traffic_disp-__stringbase)| (0+32768)))& (0+255)
  2305  0706                     L3:	
  2306  0706  160A  118A  25D5  120A  118A  	fcall	_Data_Str_Disp_LCD
  2307                           
  2308                           ;timer13.c: 363: }
  2309                           ;timer13.c: 364: traffic_fsm_state =(10);
  2310  070B  300A               	movlw	10
  2311  070C  1283               	bcf	3,5	;RP0=0, select bank0
  2312  070D  1303               	bcf	3,6	;RP1=0, select bank0
  2313  070E  00EA               	movwf	_traffic_fsm_state
  2314  070F  3000               	movlw	0
  2315  0710  00EB               	movwf	_traffic_fsm_state+1
  2316                           
  2317                           ;timer13.c: 365: Startup_S_Go_Fsm_Proc();
  2318  0711  120A  118A  21E2   	fcall	_Startup_S_Go_Fsm_Proc
  2319                           
  2320                           ;timer13.c: 366: break;
  2321  0714  0008               	return
  2322  0715                     l2449:	
  2323                           
  2324                           ;timer13.c: 367: }
  2325                           ;timer13.c: 368: N_Wait_Fsm_Proc();
  2326  0715  120A  158A  2168   	fcall	_N_Wait_Fsm_Proc
  2327                           
  2328                           ;timer13.c: 369: break;
  2329  0718  0008               	return
  2330  0719                     l2451:	
  2331                           ;timer13.c: 370: case (10):
  2332                           
  2333                           
  2334                           ;timer13.c: 371: ++each_fsmstate_secs;
  2335  0719  3001               	movlw	1
  2336  071A  1283               	bcf	3,5	;RP0=0, select bank0
  2337  071B  1303               	bcf	3,6	;RP1=0, select bank0
  2338  071C  07BE               	addwf	_each_fsmstate_secs,f
  2339  071D  1803               	skipnc
  2340  071E  0ABF               	incf	_each_fsmstate_secs+1,f
  2341  071F  3000               	movlw	0
  2342  0720  07BF               	addwf	_each_fsmstate_secs+1,f
  2343                           
  2344                           ;timer13.c: 373: if(each_fsmstate_secs >= s_green_duration )
  2345  0721  0863               	movf	_s_green_duration+1,w
  2346  0722  023F               	subwf	_each_fsmstate_secs+1,w
  2347  0723  1D03               	skipz
  2348  0724  2F27               	goto	u1175
  2349  0725  0862               	movf	_s_green_duration,w
  2350  0726  023E               	subwf	_each_fsmstate_secs,w
  2351  0727                     u1175:	
  2352  0727  1C03               	skipc
  2353  0728  2F33               	goto	l2459
  2354                           
  2355                           ;timer13.c: 374: {
  2356                           ;timer13.c: 375: each_fsmstate_secs= 0;
  2357  0729  01BE               	clrf	_each_fsmstate_secs
  2358  072A  01BF               	clrf	_each_fsmstate_secs+1
  2359                           
  2360                           ;timer13.c: 376: traffic_fsm_state = (12);
  2361  072B  300C               	movlw	12
  2362  072C  00EA               	movwf	_traffic_fsm_state
  2363  072D  3000               	movlw	0
  2364  072E  00EB               	movwf	_traffic_fsm_state+1
  2365                           
  2366                           ;timer13.c: 377: Startup_S_Wait_Fsm_Proc();
  2367  072F  120A  158A  270B   	fcall	_Startup_S_Wait_Fsm_Proc
  2368                           
  2369                           ;timer13.c: 378: break;
  2370  0732  0008               	return
  2371  0733                     l2459:	
  2372                           
  2373                           ;timer13.c: 379: }
  2374                           ;timer13.c: 380: S_Go_Fsm_Proc();
  2375  0733  120A  158A  21CD   	fcall	_S_Go_Fsm_Proc
  2376                           
  2377                           ;timer13.c: 381: break;
  2378  0736  0008               	return
  2379  0737                     l2461:	
  2380                           ;timer13.c: 382: case (12):
  2381                           
  2382                           
  2383                           ;timer13.c: 383: ++each_fsmstate_secs;
  2384  0737  3001               	movlw	1
  2385  0738  1283               	bcf	3,5	;RP0=0, select bank0
  2386  0739  1303               	bcf	3,6	;RP1=0, select bank0
  2387  073A  07BE               	addwf	_each_fsmstate_secs,f
  2388  073B  1803               	skipnc
  2389  073C  0ABF               	incf	_each_fsmstate_secs+1,f
  2390  073D  3000               	movlw	0
  2391  073E  07BF               	addwf	_each_fsmstate_secs+1,f
  2392                           
  2393                           ;timer13.c: 385: if(each_fsmstate_secs >= (5) )
  2394  073F  3000               	movlw	0
  2395  0740  023F               	subwf	_each_fsmstate_secs+1,w
  2396  0741  3005               	movlw	5
  2397  0742  1903               	skipnz
  2398  0743  023E               	subwf	_each_fsmstate_secs,w
  2399  0744  1C03               	skipc
  2400  0745  2FAD               	goto	l2501
  2401                           
  2402                           ;timer13.c: 386: {
  2403                           ;timer13.c: 387: each_fsmstate_secs = 0;
  2404  0746  01BE               	clrf	_each_fsmstate_secs
  2405  0747  01BF               	clrf	_each_fsmstate_secs+1
  2406                           
  2407                           ;timer13.c: 388: if(RB0 == (1) && RB1 == (1))
  2408  0748  1806               	btfsc	6,0	;volatile
  2409  0749  1C86               	btfss	6,1	;volatile
  2410  074A  2F5E               	goto	l244
  2411                           
  2412                           ;timer13.c: 389: {
  2413                           ;timer13.c: 390: e_green_duration = (10) + (5u) + (5u);
  2414  074B  3014               	movlw	20
  2415  074C  00E8               	movwf	_e_green_duration
  2416  074D  3000               	movlw	0
  2417  074E  00E9               	movwf	_e_green_duration+1
  2418                           
  2419                           ;timer13.c: 391: Goto_XY_LCD_Disp((1u), (14U));
  2420  074F  3001               	movlw	1
  2421  0750  00F4               	movwf	Goto_XY_LCD_Disp@line_num
  2422  0751  3000               	movlw	0
  2423  0752  00F5               	movwf	Goto_XY_LCD_Disp@line_num+1
  2424  0753  300E               	movlw	14
  2425  0754  00F6               	movwf	Goto_XY_LCD_Disp@col_num
  2426  0755  3000               	movlw	0
  2427  0756  00F7               	movwf	Goto_XY_LCD_Disp@col_num+1
  2428  0757  160A  118A  26AD  120A  118A  	fcall	_Goto_XY_LCD_Disp
  2429                           
  2430                           ;timer13.c: 392: Data_Str_Disp_LCD(level2_traffic_disp);
  2431  075C  3033               	movlw	(low ((_level2_traffic_disp-__stringbase)| (0+32768)))& (0+255)
  2432  075D  2F9E               	goto	L4
  2433  075E                     l244:	
  2434                           ;timer13.c: 393: }
  2435                           
  2436                           
  2437                           ;timer13.c: 394: else if(RB0 ==(1) && RB1 == (0))
  2438  075E  1806               	btfsc	6,0	;volatile
  2439  075F  1886               	btfsc	6,1	;volatile
  2440  0760  2F74               	goto	l246
  2441                           
  2442                           ;timer13.c: 395: {
  2443                           ;timer13.c: 396: e_green_duration = (10) + (5u);
  2444  0761  300F               	movlw	15
  2445  0762  00E8               	movwf	_e_green_duration
  2446  0763  3000               	movlw	0
  2447  0764  00E9               	movwf	_e_green_duration+1
  2448                           
  2449                           ;timer13.c: 397: Goto_XY_LCD_Disp((1u), (14U));
  2450  0765  3001               	movlw	1
  2451  0766  00F4               	movwf	Goto_XY_LCD_Disp@line_num
  2452  0767  3000               	movlw	0
  2453  0768  00F5               	movwf	Goto_XY_LCD_Disp@line_num+1
  2454  0769  300E               	movlw	14
  2455  076A  00F6               	movwf	Goto_XY_LCD_Disp@col_num
  2456  076B  3000               	movlw	0
  2457  076C  00F7               	movwf	Goto_XY_LCD_Disp@col_num+1
  2458  076D  160A  118A  26AD  120A  118A  	fcall	_Goto_XY_LCD_Disp
  2459                           
  2460                           ;timer13.c: 398: Data_Str_Disp_LCD(level1_traffic_disp);
  2461  0772  3035               	movlw	(low ((_level1_traffic_disp-__stringbase)| (0+32768)))& (0+255)
  2462  0773  2F9E               	goto	L4
  2463  0774                     l246:	
  2464                           ;timer13.c: 399: }
  2465                           
  2466                           
  2467                           ;timer13.c: 400: else if(RB0 == (0) && RB1 == (0))
  2468  0774  1C06               	btfss	6,0	;volatile
  2469  0775  1886               	btfsc	6,1	;volatile
  2470  0776  2F8A               	goto	l2491
  2471                           
  2472                           ;timer13.c: 401: {
  2473                           ;timer13.c: 402: e_green_duration = (10);
  2474  0777  300A               	movlw	10
  2475  0778  00E8               	movwf	_e_green_duration
  2476  0779  3000               	movlw	0
  2477  077A  00E9               	movwf	_e_green_duration+1
  2478                           
  2479                           ;timer13.c: 403: Goto_XY_LCD_Disp((1u), (14U));
  2480  077B  3001               	movlw	1
  2481  077C  00F4               	movwf	Goto_XY_LCD_Disp@line_num
  2482  077D  3000               	movlw	0
  2483  077E  00F5               	movwf	Goto_XY_LCD_Disp@line_num+1
  2484  077F  300E               	movlw	14
  2485  0780  00F6               	movwf	Goto_XY_LCD_Disp@col_num
  2486  0781  3000               	movlw	0
  2487  0782  00F7               	movwf	Goto_XY_LCD_Disp@col_num+1
  2488  0783  160A  118A  26AD  120A  118A  	fcall	_Goto_XY_LCD_Disp
  2489                           
  2490                           ;timer13.c: 404: Data_Str_Disp_LCD(level0_traffic_disp);
  2491  0788  3037               	movlw	(low ((_level0_traffic_disp-__stringbase)| (0+32768)))& (0+255)
  2492  0789  2F9E               	goto	L4
  2493  078A                     l2491:	
  2494                           ;timer13.c: 405: }
  2495                           
  2496                           
  2497                           ;timer13.c: 406: else
  2498                           ;timer13.c: 407: {
  2499                           ;timer13.c: 409: e_green_duration = (10) + (5u) + (5u);
  2500  078A  3014               	movlw	20
  2501  078B  1283               	bcf	3,5	;RP0=0, select bank0
  2502  078C  1303               	bcf	3,6	;RP1=0, select bank0
  2503  078D  00E8               	movwf	_e_green_duration
  2504  078E  3000               	movlw	0
  2505  078F  00E9               	movwf	_e_green_duration+1
  2506                           
  2507                           ;timer13.c: 410: Goto_XY_LCD_Disp((1u), (14U));
  2508  0790  3001               	movlw	1
  2509  0791  00F4               	movwf	Goto_XY_LCD_Disp@line_num
  2510  0792  3000               	movlw	0
  2511  0793  00F5               	movwf	Goto_XY_LCD_Disp@line_num+1
  2512  0794  300E               	movlw	14
  2513  0795  00F6               	movwf	Goto_XY_LCD_Disp@col_num
  2514  0796  3000               	movlw	0
  2515  0797  00F7               	movwf	Goto_XY_LCD_Disp@col_num+1
  2516  0798  160A  118A  26AD  120A  118A  	fcall	_Goto_XY_LCD_Disp
  2517                           
  2518                           ;timer13.c: 411: Data_Str_Disp_LCD(error_traffic_disp);
  2519  079D  3031               	movlw	(low ((_error_traffic_disp-__stringbase)| (0+32768)))& (0+255)
  2520  079E                     L4:	
  2521  079E  160A  118A  25D5  120A  118A  	fcall	_Data_Str_Disp_LCD
  2522                           
  2523                           ;timer13.c: 412: }
  2524                           ;timer13.c: 413: traffic_fsm_state =(1);
  2525  07A3  3001               	movlw	1
  2526  07A4  1283               	bcf	3,5	;RP0=0, select bank0
  2527  07A5  1303               	bcf	3,6	;RP1=0, select bank0
  2528  07A6  00EA               	movwf	_traffic_fsm_state
  2529  07A7  3000               	movlw	0
  2530  07A8  00EB               	movwf	_traffic_fsm_state+1
  2531                           
  2532                           ;timer13.c: 414: Startup_E_Go_Fsm_Proc();
  2533  07A9  120A  118A  20D8   	fcall	_Startup_E_Go_Fsm_Proc
  2534                           
  2535                           ;timer13.c: 415: break;
  2536  07AC  0008               	return
  2537  07AD                     l2501:	
  2538                           
  2539                           ;timer13.c: 416: }
  2540                           ;timer13.c: 417: S_Wait_Fsm_Proc();
  2541  07AD  120A  158A  2232   	fcall	_S_Wait_Fsm_Proc
  2542                           
  2543                           ;timer13.c: 419: }
  2544                           
  2545                           ;timer13.c: 418: break;
  2546  07B0  0008               	return
  2547  07B1                     l2505:	
  2548                           
  2549                           ; Switch on 2 bytes has been partitioned into a top level switch of size 1, and 1 sub-sw
      +                          itches
  2550                           ; Switch size 1, requested type "space"
  2551                           ; Number of cases is 1, Range of values is 0 to 0
  2552                           ; switch strategies available:
  2553                           ; Name         Instructions Cycles
  2554                           ; simple_byte            4     3 (average)
  2555                           ; direct_byte           11     8 (fixed)
  2556                           ; jumptable            260     6 (fixed)
  2557                           ;	Chosen strategy is simple_byte
  2558  07B1  1283               	bcf	3,5	;RP0=0, select bank0
  2559  07B2  1303               	bcf	3,6	;RP1=0, select bank0
  2560  07B3  086B               	movf	_traffic_fsm_state+1,w
  2561  07B4  3A00               	xorlw	0	; case 0
  2562  07B5  1903               	skipnz
  2563  07B6  2FB8               	goto	l2643
  2564  07B7  2FD2               	goto	l250
  2565  07B8                     l2643:	
  2566                           
  2567                           ; Switch size 1, requested type "space"
  2568                           ; Number of cases is 8, Range of values is 1 to 12
  2569                           ; switch strategies available:
  2570                           ; Name         Instructions Cycles
  2571                           ; simple_byte           25    13 (average)
  2572                           ; direct_byte           47    11 (fixed)
  2573                           ; jumptable            263     9 (fixed)
  2574                           ;	Chosen strategy is simple_byte
  2575  07B8  086A               	movf	_traffic_fsm_state,w
  2576  07B9  3A01               	xorlw	1	; case 1
  2577  07BA  1903               	skipnz
  2578  07BB  2D53               	goto	l2295
  2579  07BC  3A02               	xorlw	2	; case 3
  2580  07BD  1903               	skipnz
  2581  07BE  2D6F               	goto	l2305
  2582  07BF  3A07               	xorlw	7	; case 4
  2583  07C0  1903               	skipnz
  2584  07C1  2DE9               	goto	l2347
  2585  07C2  3A02               	xorlw	2	; case 6
  2586  07C3  1903               	skipnz
  2587  07C4  2E07               	goto	l2357
  2588  07C5  3A01               	xorlw	1	; case 7
  2589  07C6  1903               	skipnz
  2590  07C7  2E81               	goto	l2399
  2591  07C8  3A0E               	xorlw	14	; case 9
  2592  07C9  1903               	skipnz
  2593  07CA  2E9F               	goto	l2409
  2594  07CB  3A03               	xorlw	3	; case 10
  2595  07CC  1903               	skipnz
  2596  07CD  2F19               	goto	l2451
  2597  07CE  3A06               	xorlw	6	; case 12
  2598  07CF  1903               	skipnz
  2599  07D0  2F37               	goto	l2461
  2600  07D1  2FD2               	goto	l250
  2601  07D2                     l250:	
  2602  07D2  0008               	return
  2603  07D3                     __end_of_Traffic_Fsm:	
  2604                           
  2605                           	psect	text5
  2606  0E1E                     __ptext5:	
  2607 ;; *************** function _Startup_W_Wait_Fsm_Proc *****************
  2608 ;; Defined at:
  2609 ;;		line 543 in file "timer13.c"
  2610 ;; Parameters:    Size  Location     Type
  2611 ;;		None
  2612 ;; Auto vars:     Size  Location     Type
  2613 ;;		None
  2614 ;; Return value:  Size  Location     Type
  2615 ;;                  1    wreg      void 
  2616 ;; Registers used:
  2617 ;;		wreg, fsr0l, fsr0h, status,2, status,0, pclath, cstack
  2618 ;; Tracked objects:
  2619 ;;		On entry : 0/0
  2620 ;;		On exit  : 0/0
  2621 ;;		Unchanged: 0/0
  2622 ;; Data sizes:     COMMON   BANK0   BANK1   BANK3   BANK2
  2623 ;;      Params:         0       0       0       0       0
  2624 ;;      Locals:         0       0       0       0       0
  2625 ;;      Temps:          0       4       0       0       0
  2626 ;;      Totals:         0       4       0       0       0
  2627 ;;Total ram usage:        4 bytes
  2628 ;; Hardware stack levels used:    1
  2629 ;; Hardware stack levels required when called:    5
  2630 ;; This function calls:
  2631 ;;		_Data_Str_Disp_LCD
  2632 ;;		_Goto_XY_LCD_Disp
  2633 ;;		_W_Wait_Fsm_Proc
  2634 ;; This function is called by:
  2635 ;;		_Traffic_Fsm
  2636 ;;		_Traffic_Init
  2637 ;; This function uses a non-reentrant model
  2638 ;;
  2639                           
  2640                           
  2641                           ;psect for function _Startup_W_Wait_Fsm_Proc
  2642  0E1E                     _Startup_W_Wait_Fsm_Proc:	
  2643                           
  2644                           ;timer13.c: 545: cur_e_red_left_secs = (5) + n_green_duration + (5) + s_green_duration +
      +                           (5);
  2645                           
  2646                           ;incstack = 0
  2647                           ; Regs used in _Startup_W_Wait_Fsm_Proc: [wreg-fsr0h+status,2+status,0+pclath+cstack]
  2648  0E1E  1283               	bcf	3,5	;RP0=0, select bank0
  2649  0E1F  1303               	bcf	3,6	;RP1=0, select bank0
  2650  0E20  0862               	movf	_s_green_duration,w
  2651  0E21  0764               	addwf	_n_green_duration,w
  2652  0E22  00DA               	movwf	??_Startup_W_Wait_Fsm_Proc
  2653  0E23  0863               	movf	_s_green_duration+1,w
  2654  0E24  1803               	skipnc
  2655  0E25  0A63               	incf	_s_green_duration+1,w
  2656  0E26  0765               	addwf	_n_green_duration+1,w
  2657  0E27  00DB               	movwf	??_Startup_W_Wait_Fsm_Proc+1
  2658  0E28  085A               	movf	??_Startup_W_Wait_Fsm_Proc,w
  2659  0E29  3E0F               	addlw	15
  2660  0E2A  00BA               	movwf	_cur_e_red_left_secs
  2661  0E2B  085B               	movf	??_Startup_W_Wait_Fsm_Proc+1,w
  2662  0E2C  1803               	skipnc
  2663  0E2D  3E01               	addlw	1
  2664  0E2E  3E00               	addlw	0
  2665  0E2F  00BB               	movwf	_cur_e_red_left_secs+1
  2666                           
  2667                           ;timer13.c: 546: cur_e_yellow_left_secs = (5) + n_green_duration + (5) + s_green_duratio
      +                          n + (5) + e_green_duration;
  2668  0E30  0862               	movf	_s_green_duration,w
  2669  0E31  0764               	addwf	_n_green_duration,w
  2670  0E32  00DA               	movwf	??_Startup_W_Wait_Fsm_Proc
  2671  0E33  0863               	movf	_s_green_duration+1,w
  2672  0E34  1803               	skipnc
  2673  0E35  0A63               	incf	_s_green_duration+1,w
  2674  0E36  0765               	addwf	_n_green_duration+1,w
  2675  0E37  00DB               	movwf	??_Startup_W_Wait_Fsm_Proc+1
  2676  0E38  0868               	movf	_e_green_duration,w
  2677  0E39  075A               	addwf	??_Startup_W_Wait_Fsm_Proc,w
  2678  0E3A  00DC               	movwf	??_Startup_W_Wait_Fsm_Proc+2
  2679  0E3B  0869               	movf	_e_green_duration+1,w
  2680  0E3C  1803               	skipnc
  2681  0E3D  0A69               	incf	_e_green_duration+1,w
  2682  0E3E  075B               	addwf	??_Startup_W_Wait_Fsm_Proc+1,w
  2683  0E3F  00DD               	movwf	??_Startup_W_Wait_Fsm_Proc+3
  2684  0E40  085C               	movf	??_Startup_W_Wait_Fsm_Proc+2,w
  2685  0E41  3E0F               	addlw	15
  2686  0E42  00B8               	movwf	_cur_e_yellow_left_secs
  2687  0E43  085D               	movf	??_Startup_W_Wait_Fsm_Proc+3,w
  2688  0E44  1803               	skipnc
  2689  0E45  3E01               	addlw	1
  2690  0E46  3E00               	addlw	0
  2691  0E47  00B9               	movwf	_cur_e_yellow_left_secs+1
  2692                           
  2693                           ;timer13.c: 547: cur_e_green_left_secs = (5) + n_green_duration + (5) + s_green_duration
      +                           + (5);
  2694  0E48  0862               	movf	_s_green_duration,w
  2695  0E49  0764               	addwf	_n_green_duration,w
  2696  0E4A  00DA               	movwf	??_Startup_W_Wait_Fsm_Proc
  2697  0E4B  0863               	movf	_s_green_duration+1,w
  2698  0E4C  1803               	skipnc
  2699  0E4D  0A63               	incf	_s_green_duration+1,w
  2700  0E4E  0765               	addwf	_n_green_duration+1,w
  2701  0E4F  00DB               	movwf	??_Startup_W_Wait_Fsm_Proc+1
  2702  0E50  085A               	movf	??_Startup_W_Wait_Fsm_Proc,w
  2703  0E51  3E0F               	addlw	15
  2704  0E52  00B6               	movwf	_cur_e_green_left_secs
  2705  0E53  085B               	movf	??_Startup_W_Wait_Fsm_Proc+1,w
  2706  0E54  1803               	skipnc
  2707  0E55  3E01               	addlw	1
  2708  0E56  3E00               	addlw	0
  2709  0E57  00B7               	movwf	_cur_e_green_left_secs+1
  2710                           
  2711                           ;timer13.c: 548: cur_w_red_left_secs = (5);
  2712  0E58  3005               	movlw	5
  2713  0E59  00B2               	movwf	_cur_w_red_left_secs
  2714  0E5A  3000               	movlw	0
  2715  0E5B  00B3               	movwf	_cur_w_red_left_secs+1
  2716                           
  2717                           ;timer13.c: 549: cur_w_yellow_left_secs = (5);
  2718  0E5C  3005               	movlw	5
  2719  0E5D  00B0               	movwf	_cur_w_yellow_left_secs
  2720  0E5E  3000               	movlw	0
  2721  0E5F  00B1               	movwf	_cur_w_yellow_left_secs+1
  2722                           
  2723                           ;timer13.c: 550: cur_w_green_left_secs = (5) + n_green_duration + (5) + s_green_duration
      +                           + (5) + e_green_duration + (5);
  2724  0E60  0862               	movf	_s_green_duration,w
  2725  0E61  0764               	addwf	_n_green_duration,w
  2726  0E62  00DA               	movwf	??_Startup_W_Wait_Fsm_Proc
  2727  0E63  0863               	movf	_s_green_duration+1,w
  2728  0E64  1803               	skipnc
  2729  0E65  0A63               	incf	_s_green_duration+1,w
  2730  0E66  0765               	addwf	_n_green_duration+1,w
  2731  0E67  00DB               	movwf	??_Startup_W_Wait_Fsm_Proc+1
  2732  0E68  0868               	movf	_e_green_duration,w
  2733  0E69  075A               	addwf	??_Startup_W_Wait_Fsm_Proc,w
  2734  0E6A  00DC               	movwf	??_Startup_W_Wait_Fsm_Proc+2
  2735  0E6B  0869               	movf	_e_green_duration+1,w
  2736  0E6C  1803               	skipnc
  2737  0E6D  0A69               	incf	_e_green_duration+1,w
  2738  0E6E  075B               	addwf	??_Startup_W_Wait_Fsm_Proc+1,w
  2739  0E6F  00DD               	movwf	??_Startup_W_Wait_Fsm_Proc+3
  2740  0E70  085C               	movf	??_Startup_W_Wait_Fsm_Proc+2,w
  2741  0E71  3E14               	addlw	20
  2742  0E72  00AE               	movwf	_cur_w_green_left_secs
  2743  0E73  085D               	movf	??_Startup_W_Wait_Fsm_Proc+3,w
  2744  0E74  1803               	skipnc
  2745  0E75  3E01               	addlw	1
  2746  0E76  3E00               	addlw	0
  2747  0E77  00AF               	movwf	_cur_w_green_left_secs+1
  2748                           
  2749                           ;timer13.c: 551: cur_n_red_left_secs = (5) ;
  2750  0E78  3005               	movlw	5
  2751  0E79  00AA               	movwf	_cur_n_red_left_secs
  2752  0E7A  3000               	movlw	0
  2753  0E7B  00AB               	movwf	_cur_n_red_left_secs+1
  2754                           
  2755                           ;timer13.c: 552: cur_n_yellow_left_secs = (5) + n_green_duration;
  2756  0E7C  0864               	movf	_n_green_duration,w
  2757  0E7D  3E05               	addlw	5
  2758  0E7E  00A8               	movwf	_cur_n_yellow_left_secs
  2759  0E7F  0865               	movf	_n_green_duration+1,w
  2760  0E80  1803               	skipnc
  2761  0E81  3E01               	addlw	1
  2762  0E82  3E00               	addlw	0
  2763  0E83  00A9               	movwf	_cur_n_yellow_left_secs+1
  2764                           
  2765                           ;timer13.c: 553: cur_n_green_left_secs = (5) ;
  2766  0E84  3005               	movlw	5
  2767  0E85  00A6               	movwf	_cur_n_green_left_secs
  2768  0E86  3000               	movlw	0
  2769  0E87  00A7               	movwf	_cur_n_green_left_secs+1
  2770                           
  2771                           ;timer13.c: 554: cur_s_red_left_secs = (5) + n_green_duration + (5);
  2772  0E88  0864               	movf	_n_green_duration,w
  2773  0E89  3E0A               	addlw	10
  2774  0E8A  00A4               	movwf	_cur_s_red_left_secs
  2775  0E8B  0865               	movf	_n_green_duration+1,w
  2776  0E8C  1803               	skipnc
  2777  0E8D  3E01               	addlw	1
  2778  0E8E  3E00               	addlw	0
  2779  0E8F  00A5               	movwf	_cur_s_red_left_secs+1
  2780                           
  2781                           ;timer13.c: 555: cur_s_yellow_left_secs = (5) + n_green_duration + (5) + s_green_duratio
      +                          n;
  2782  0E90  0862               	movf	_s_green_duration,w
  2783  0E91  0764               	addwf	_n_green_duration,w
  2784  0E92  00DA               	movwf	??_Startup_W_Wait_Fsm_Proc
  2785  0E93  0863               	movf	_s_green_duration+1,w
  2786  0E94  1803               	skipnc
  2787  0E95  0A63               	incf	_s_green_duration+1,w
  2788  0E96  0765               	addwf	_n_green_duration+1,w
  2789  0E97  00DB               	movwf	??_Startup_W_Wait_Fsm_Proc+1
  2790  0E98  085A               	movf	??_Startup_W_Wait_Fsm_Proc,w
  2791  0E99  3E0A               	addlw	10
  2792  0E9A  00A2               	movwf	_cur_s_yellow_left_secs
  2793  0E9B  085B               	movf	??_Startup_W_Wait_Fsm_Proc+1,w
  2794  0E9C  1803               	skipnc
  2795  0E9D  3E01               	addlw	1
  2796  0E9E  3E00               	addlw	0
  2797  0E9F  00A3               	movwf	_cur_s_yellow_left_secs+1
  2798                           
  2799                           ;timer13.c: 556: cur_s_green_left_secs = (5) + n_green_duration + (5);
  2800  0EA0  0864               	movf	_n_green_duration,w
  2801  0EA1  3E0A               	addlw	10
  2802  0EA2  00A0               	movwf	_cur_s_green_left_secs
  2803  0EA3  0865               	movf	_n_green_duration+1,w
  2804  0EA4  1803               	skipnc
  2805  0EA5  3E01               	addlw	1
  2806  0EA6  3E00               	addlw	0
  2807  0EA7  00A1               	movwf	_cur_s_green_left_secs+1
  2808                           
  2809                           ;timer13.c: 558: Goto_XY_LCD_Disp((2u), (14U));
  2810  0EA8  3002               	movlw	2
  2811  0EA9  00F4               	movwf	Goto_XY_LCD_Disp@line_num
  2812  0EAA  3000               	movlw	0
  2813  0EAB  00F5               	movwf	Goto_XY_LCD_Disp@line_num+1
  2814  0EAC  300E               	movlw	14
  2815  0EAD  00F6               	movwf	Goto_XY_LCD_Disp@col_num
  2816  0EAE  3000               	movlw	0
  2817  0EAF  00F7               	movwf	Goto_XY_LCD_Disp@col_num+1
  2818  0EB0  160A  118A  26AD  120A  158A  	fcall	_Goto_XY_LCD_Disp
  2819                           
  2820                           ;timer13.c: 559: Data_Str_Disp_LCD(blank_traffic_disp);
  2821  0EB5  302F               	movlw	(low ((_blank_traffic_disp-__stringbase)| (0+32768)))& (0+255)
  2822  0EB6  160A  118A  25D5  120A  158A  	fcall	_Data_Str_Disp_LCD
  2823                           
  2824                           ;timer13.c: 560: Goto_XY_LCD_Disp((1u), (3u));
  2825  0EBB  3001               	movlw	1
  2826  0EBC  00F4               	movwf	Goto_XY_LCD_Disp@line_num
  2827  0EBD  3000               	movlw	0
  2828  0EBE  00F5               	movwf	Goto_XY_LCD_Disp@line_num+1
  2829  0EBF  3003               	movlw	3
  2830  0EC0  00F6               	movwf	Goto_XY_LCD_Disp@col_num
  2831  0EC1  3000               	movlw	0
  2832  0EC2  00F7               	movwf	Goto_XY_LCD_Disp@col_num+1
  2833  0EC3  160A  118A  26AD  120A  158A  	fcall	_Goto_XY_LCD_Disp
  2834                           
  2835                           ;timer13.c: 561: Data_Str_Disp_LCD(red_disp);
  2836  0EC8  301F               	movlw	(low ((_red_disp-__stringbase)| (0+32768)))& (0+255)
  2837  0EC9  160A  118A  25D5  120A  158A  	fcall	_Data_Str_Disp_LCD
  2838                           
  2839                           ;timer13.c: 562: Goto_XY_LCD_Disp((2u),(3u));
  2840  0ECE  3002               	movlw	2
  2841  0ECF  00F4               	movwf	Goto_XY_LCD_Disp@line_num
  2842  0ED0  3000               	movlw	0
  2843  0ED1  00F5               	movwf	Goto_XY_LCD_Disp@line_num+1
  2844  0ED2  3003               	movlw	3
  2845  0ED3  00F6               	movwf	Goto_XY_LCD_Disp@col_num
  2846  0ED4  3000               	movlw	0
  2847  0ED5  00F7               	movwf	Goto_XY_LCD_Disp@col_num+1
  2848  0ED6  160A  118A  26AD  120A  158A  	fcall	_Goto_XY_LCD_Disp
  2849                           
  2850                           ;timer13.c: 563: Data_Str_Disp_LCD(yellow_disp);
  2851  0EDB  300D               	movlw	(low ((_yellow_disp-__stringbase)| (0+32768)))& (0+255)
  2852  0EDC  160A  118A  25D5  120A  158A  	fcall	_Data_Str_Disp_LCD
  2853                           
  2854                           ;timer13.c: 564: Goto_XY_LCD_Disp((3u),(3u));
  2855  0EE1  3003               	movlw	3
  2856  0EE2  00F4               	movwf	Goto_XY_LCD_Disp@line_num
  2857  0EE3  3000               	movlw	0
  2858  0EE4  00F5               	movwf	Goto_XY_LCD_Disp@line_num+1
  2859  0EE5  3003               	movlw	3
  2860  0EE6  00F6               	movwf	Goto_XY_LCD_Disp@col_num
  2861  0EE7  3000               	movlw	0
  2862  0EE8  00F7               	movwf	Goto_XY_LCD_Disp@col_num+1
  2863  0EE9  160A  118A  26AD  120A  158A  	fcall	_Goto_XY_LCD_Disp
  2864                           
  2865                           ;timer13.c: 565: Data_Str_Disp_LCD(red_disp);
  2866  0EEE  301F               	movlw	(low ((_red_disp-__stringbase)| (0+32768)))& (0+255)
  2867  0EEF  160A  118A  25D5  120A  158A  	fcall	_Data_Str_Disp_LCD
  2868                           
  2869                           ;timer13.c: 566: Goto_XY_LCD_Disp((4u),(3u));
  2870  0EF4  3004               	movlw	4
  2871  0EF5  00F4               	movwf	Goto_XY_LCD_Disp@line_num
  2872  0EF6  3000               	movlw	0
  2873  0EF7  00F5               	movwf	Goto_XY_LCD_Disp@line_num+1
  2874  0EF8  3003               	movlw	3
  2875  0EF9  00F6               	movwf	Goto_XY_LCD_Disp@col_num
  2876  0EFA  3000               	movlw	0
  2877  0EFB  00F7               	movwf	Goto_XY_LCD_Disp@col_num+1
  2878  0EFC  160A  118A  26AD  120A  158A  	fcall	_Goto_XY_LCD_Disp
  2879                           
  2880                           ;timer13.c: 567: Data_Str_Disp_LCD(red_disp);
  2881  0F01  301F               	movlw	(low ((_red_disp-__stringbase)| (0+32768)))& (0+255)
  2882  0F02  160A  118A  25D5  120A  158A  	fcall	_Data_Str_Disp_LCD
  2883                           
  2884                           ;timer13.c: 569: W_Wait_Fsm_Proc();
  2885  0F07  120A  158A  22FC   	fcall	_W_Wait_Fsm_Proc
  2886  0F0A  0008               	return
  2887  0F0B                     __end_of_Startup_W_Wait_Fsm_Proc:	
  2888                           
  2889                           	psect	text6
  2890  0AFC                     __ptext6:	
  2891 ;; *************** function _W_Wait_Fsm_Proc *****************
  2892 ;; Defined at:
  2893 ;;		line 744 in file "timer13.c"
  2894 ;; Parameters:    Size  Location     Type
  2895 ;;		None
  2896 ;; Auto vars:     Size  Location     Type
  2897 ;;		None
  2898 ;; Return value:  Size  Location     Type
  2899 ;;                  1    wreg      void 
  2900 ;; Registers used:
  2901 ;;		wreg, fsr0l, fsr0h, status,2, status,0, pclath, cstack
  2902 ;; Tracked objects:
  2903 ;;		On entry : 0/0
  2904 ;;		On exit  : 0/0
  2905 ;;		Unchanged: 0/0
  2906 ;; Data sizes:     COMMON   BANK0   BANK1   BANK3   BANK2
  2907 ;;      Params:         0       0       0       0       0
  2908 ;;      Locals:         0       0       0       0       0
  2909 ;;      Temps:          0       0       0       0       0
  2910 ;;      Totals:         0       0       0       0       0
  2911 ;;Total ram usage:        0 bytes
  2912 ;; Hardware stack levels used:    1
  2913 ;; Hardware stack levels required when called:    4
  2914 ;; This function calls:
  2915 ;;		_Data_3Digit_Num_Disp_LCD
  2916 ;;		_Goto_XY_LCD_Disp
  2917 ;; This function is called by:
  2918 ;;		_Traffic_Fsm
  2919 ;;		_Startup_W_Wait_Fsm_Proc
  2920 ;; This function uses a non-reentrant model
  2921 ;;
  2922                           
  2923                           
  2924                           ;psect for function _W_Wait_Fsm_Proc
  2925  0AFC                     _W_Wait_Fsm_Proc:	
  2926                           
  2927                           ;timer13.c: 746: PORTA = 0x21;
  2928                           
  2929                           ;incstack = 0
  2930                           ; Regs used in _W_Wait_Fsm_Proc: [wreg-fsr0h+status,2+status,0+pclath+cstack]
  2931  0AFC  3021               	movlw	33
  2932  0AFD  1283               	bcf	3,5	;RP0=0, select bank0
  2933  0AFE  1303               	bcf	3,6	;RP1=0, select bank0
  2934  0AFF  0085               	movwf	5	;volatile
  2935                           
  2936                           ;timer13.c: 747: PORTC = 0x11;
  2937  0B00  3011               	movlw	17
  2938  0B01  0087               	movwf	7	;volatile
  2939                           
  2940                           ;timer13.c: 750: Goto_XY_LCD_Disp((1u), (15U));
  2941  0B02  3001               	movlw	1
  2942  0B03  00F4               	movwf	Goto_XY_LCD_Disp@line_num
  2943  0B04  3000               	movlw	0
  2944  0B05  00F5               	movwf	Goto_XY_LCD_Disp@line_num+1
  2945  0B06  300F               	movlw	15
  2946  0B07  00F6               	movwf	Goto_XY_LCD_Disp@col_num
  2947  0B08  3000               	movlw	0
  2948  0B09  00F7               	movwf	Goto_XY_LCD_Disp@col_num+1
  2949  0B0A  160A  118A  26AD  120A  158A  	fcall	_Goto_XY_LCD_Disp
  2950                           
  2951                           ;timer13.c: 751: Data_3Digit_Num_Disp_LCD(cur_e_red_left_secs);
  2952  0B0F  1283               	bcf	3,5	;RP0=0, select bank0
  2953  0B10  1303               	bcf	3,6	;RP1=0, select bank0
  2954  0B11  083B               	movf	_cur_e_red_left_secs+1,w
  2955  0B12  00C3               	movwf	Data_3Digit_Num_Disp_LCD@data_int+1
  2956  0B13  083A               	movf	_cur_e_red_left_secs,w
  2957  0B14  00C2               	movwf	Data_3Digit_Num_Disp_LCD@data_int
  2958  0B15  120A  118A  203B  120A  158A  	fcall	_Data_3Digit_Num_Disp_LCD
  2959                           
  2960                           ;timer13.c: 753: Goto_XY_LCD_Disp((2u), (15U));
  2961  0B1A  3002               	movlw	2
  2962  0B1B  00F4               	movwf	Goto_XY_LCD_Disp@line_num
  2963  0B1C  3000               	movlw	0
  2964  0B1D  00F5               	movwf	Goto_XY_LCD_Disp@line_num+1
  2965  0B1E  300F               	movlw	15
  2966  0B1F  00F6               	movwf	Goto_XY_LCD_Disp@col_num
  2967  0B20  3000               	movlw	0
  2968  0B21  00F7               	movwf	Goto_XY_LCD_Disp@col_num+1
  2969  0B22  160A  118A  26AD  120A  158A  	fcall	_Goto_XY_LCD_Disp
  2970                           
  2971                           ;timer13.c: 754: Data_3Digit_Num_Disp_LCD(cur_w_yellow_left_secs);
  2972  0B27  1283               	bcf	3,5	;RP0=0, select bank0
  2973  0B28  1303               	bcf	3,6	;RP1=0, select bank0
  2974  0B29  0831               	movf	_cur_w_yellow_left_secs+1,w
  2975  0B2A  00C3               	movwf	Data_3Digit_Num_Disp_LCD@data_int+1
  2976  0B2B  0830               	movf	_cur_w_yellow_left_secs,w
  2977  0B2C  00C2               	movwf	Data_3Digit_Num_Disp_LCD@data_int
  2978  0B2D  120A  118A  203B  120A  158A  	fcall	_Data_3Digit_Num_Disp_LCD
  2979                           
  2980                           ;timer13.c: 757: Goto_XY_LCD_Disp((3u), (15U));
  2981  0B32  3003               	movlw	3
  2982  0B33  00F4               	movwf	Goto_XY_LCD_Disp@line_num
  2983  0B34  3000               	movlw	0
  2984  0B35  00F5               	movwf	Goto_XY_LCD_Disp@line_num+1
  2985  0B36  300F               	movlw	15
  2986  0B37  00F6               	movwf	Goto_XY_LCD_Disp@col_num
  2987  0B38  3000               	movlw	0
  2988  0B39  00F7               	movwf	Goto_XY_LCD_Disp@col_num+1
  2989  0B3A  160A  118A  26AD  120A  158A  	fcall	_Goto_XY_LCD_Disp
  2990                           
  2991                           ;timer13.c: 758: Data_3Digit_Num_Disp_LCD(cur_n_red_left_secs);
  2992  0B3F  1283               	bcf	3,5	;RP0=0, select bank0
  2993  0B40  1303               	bcf	3,6	;RP1=0, select bank0
  2994  0B41  082B               	movf	_cur_n_red_left_secs+1,w
  2995  0B42  00C3               	movwf	Data_3Digit_Num_Disp_LCD@data_int+1
  2996  0B43  082A               	movf	_cur_n_red_left_secs,w
  2997  0B44  00C2               	movwf	Data_3Digit_Num_Disp_LCD@data_int
  2998  0B45  120A  118A  203B  120A  158A  	fcall	_Data_3Digit_Num_Disp_LCD
  2999                           
  3000                           ;timer13.c: 761: Goto_XY_LCD_Disp((4u), (15U));
  3001  0B4A  3004               	movlw	4
  3002  0B4B  00F4               	movwf	Goto_XY_LCD_Disp@line_num
  3003  0B4C  3000               	movlw	0
  3004  0B4D  00F5               	movwf	Goto_XY_LCD_Disp@line_num+1
  3005  0B4E  300F               	movlw	15
  3006  0B4F  00F6               	movwf	Goto_XY_LCD_Disp@col_num
  3007  0B50  3000               	movlw	0
  3008  0B51  00F7               	movwf	Goto_XY_LCD_Disp@col_num+1
  3009  0B52  160A  118A  26AD  120A  158A  	fcall	_Goto_XY_LCD_Disp
  3010                           
  3011                           ;timer13.c: 762: Data_3Digit_Num_Disp_LCD(cur_s_red_left_secs);
  3012  0B57  1283               	bcf	3,5	;RP0=0, select bank0
  3013  0B58  1303               	bcf	3,6	;RP1=0, select bank0
  3014  0B59  0825               	movf	_cur_s_red_left_secs+1,w
  3015  0B5A  00C3               	movwf	Data_3Digit_Num_Disp_LCD@data_int+1
  3016  0B5B  0824               	movf	_cur_s_red_left_secs,w
  3017  0B5C  00C2               	movwf	Data_3Digit_Num_Disp_LCD@data_int
  3018  0B5D  120A  118A  203B   	fcall	_Data_3Digit_Num_Disp_LCD
  3019  0B60  0008               	return
  3020  0B61                     __end_of_W_Wait_Fsm_Proc:	
  3021                           
  3022                           	psect	text7
  3023  02EC                     __ptext7:	
  3024 ;; *************** function _Startup_W_Go_Fsm_Proc *****************
  3025 ;; Defined at:
  3026 ;;		line 517 in file "timer13.c"
  3027 ;; Parameters:    Size  Location     Type
  3028 ;;		None
  3029 ;; Auto vars:     Size  Location     Type
  3030 ;;		None
  3031 ;; Return value:  Size  Location     Type
  3032 ;;                  1    wreg      void 
  3033 ;; Registers used:
  3034 ;;		wreg, fsr0l, fsr0h, status,2, status,0, pclath, cstack
  3035 ;; Tracked objects:
  3036 ;;		On entry : 0/0
  3037 ;;		On exit  : 0/0
  3038 ;;		Unchanged: 0/0
  3039 ;; Data sizes:     COMMON   BANK0   BANK1   BANK3   BANK2
  3040 ;;      Params:         0       0       0       0       0
  3041 ;;      Locals:         0       0       0       0       0
  3042 ;;      Temps:          0       6       0       0       0
  3043 ;;      Totals:         0       6       0       0       0
  3044 ;;Total ram usage:        6 bytes
  3045 ;; Hardware stack levels used:    1
  3046 ;; Hardware stack levels required when called:    5
  3047 ;; This function calls:
  3048 ;;		_Data_Str_Disp_LCD
  3049 ;;		_Goto_XY_LCD_Disp
  3050 ;;		_W_Go_Fsm_Proc
  3051 ;; This function is called by:
  3052 ;;		_Traffic_Fsm
  3053 ;;		_Traffic_Init
  3054 ;; This function uses a non-reentrant model
  3055 ;;
  3056                           
  3057                           
  3058                           ;psect for function _Startup_W_Go_Fsm_Proc
  3059  02EC                     _Startup_W_Go_Fsm_Proc:	
  3060                           
  3061                           ;timer13.c: 519: cur_e_red_left_secs = w_green_duration + (5) + n_green_duration + (5) +
      +                           s_green_duration + (5);
  3062                           
  3063                           ;incstack = 0
  3064                           ; Regs used in _Startup_W_Go_Fsm_Proc: [wreg-fsr0h+status,2+status,0+pclath+cstack]
  3065  02EC  1283               	bcf	3,5	;RP0=0, select bank0
  3066  02ED  1303               	bcf	3,6	;RP1=0, select bank0
  3067  02EE  0864               	movf	_n_green_duration,w
  3068  02EF  0766               	addwf	_w_green_duration,w
  3069  02F0  00DA               	movwf	??_Startup_W_Go_Fsm_Proc
  3070  02F1  0865               	movf	_n_green_duration+1,w
  3071  02F2  1803               	skipnc
  3072  02F3  0A65               	incf	_n_green_duration+1,w
  3073  02F4  0767               	addwf	_w_green_duration+1,w
  3074  02F5  00DB               	movwf	??_Startup_W_Go_Fsm_Proc+1
  3075  02F6  0862               	movf	_s_green_duration,w
  3076  02F7  075A               	addwf	??_Startup_W_Go_Fsm_Proc,w
  3077  02F8  00DC               	movwf	??_Startup_W_Go_Fsm_Proc+2
  3078  02F9  0863               	movf	_s_green_duration+1,w
  3079  02FA  1803               	skipnc
  3080  02FB  0A63               	incf	_s_green_duration+1,w
  3081  02FC  075B               	addwf	??_Startup_W_Go_Fsm_Proc+1,w
  3082  02FD  00DD               	movwf	??_Startup_W_Go_Fsm_Proc+3
  3083  02FE  085C               	movf	??_Startup_W_Go_Fsm_Proc+2,w
  3084  02FF  3E0F               	addlw	15
  3085  0300  00BA               	movwf	_cur_e_red_left_secs
  3086  0301  085D               	movf	??_Startup_W_Go_Fsm_Proc+3,w
  3087  0302  1803               	skipnc
  3088  0303  3E01               	addlw	1
  3089  0304  3E00               	addlw	0
  3090  0305  00BB               	movwf	_cur_e_red_left_secs+1
  3091                           
  3092                           ;timer13.c: 520: cur_e_yellow_left_secs = w_green_duration + (5) + n_green_duration + (5
      +                          ) + s_green_duration + (5) + e_green_duration;
  3093  0306  0864               	movf	_n_green_duration,w
  3094  0307  0766               	addwf	_w_green_duration,w
  3095  0308  00DA               	movwf	??_Startup_W_Go_Fsm_Proc
  3096  0309  0865               	movf	_n_green_duration+1,w
  3097  030A  1803               	skipnc
  3098  030B  0A65               	incf	_n_green_duration+1,w
  3099  030C  0767               	addwf	_w_green_duration+1,w
  3100  030D  00DB               	movwf	??_Startup_W_Go_Fsm_Proc+1
  3101  030E  0862               	movf	_s_green_duration,w
  3102  030F  075A               	addwf	??_Startup_W_Go_Fsm_Proc,w
  3103  0310  00DC               	movwf	??_Startup_W_Go_Fsm_Proc+2
  3104  0311  0863               	movf	_s_green_duration+1,w
  3105  0312  1803               	skipnc
  3106  0313  0A63               	incf	_s_green_duration+1,w
  3107  0314  075B               	addwf	??_Startup_W_Go_Fsm_Proc+1,w
  3108  0315  00DD               	movwf	??_Startup_W_Go_Fsm_Proc+3
  3109  0316  0868               	movf	_e_green_duration,w
  3110  0317  075C               	addwf	??_Startup_W_Go_Fsm_Proc+2,w
  3111  0318  00DE               	movwf	??_Startup_W_Go_Fsm_Proc+4
  3112  0319  0869               	movf	_e_green_duration+1,w
  3113  031A  1803               	skipnc
  3114  031B  0A69               	incf	_e_green_duration+1,w
  3115  031C  075D               	addwf	??_Startup_W_Go_Fsm_Proc+3,w
  3116  031D  00DF               	movwf	??_Startup_W_Go_Fsm_Proc+5
  3117  031E  085E               	movf	??_Startup_W_Go_Fsm_Proc+4,w
  3118  031F  3E0F               	addlw	15
  3119  0320  00B8               	movwf	_cur_e_yellow_left_secs
  3120  0321  085F               	movf	??_Startup_W_Go_Fsm_Proc+5,w
  3121  0322  1803               	skipnc
  3122  0323  3E01               	addlw	1
  3123  0324  3E00               	addlw	0
  3124  0325  00B9               	movwf	_cur_e_yellow_left_secs+1
  3125                           
  3126                           ;timer13.c: 521: cur_e_green_left_secs = w_green_duration + (5) + n_green_duration + (5)
      +                           + s_green_duration + (5);
  3127  0326  0864               	movf	_n_green_duration,w
  3128  0327  0766               	addwf	_w_green_duration,w
  3129  0328  00DA               	movwf	??_Startup_W_Go_Fsm_Proc
  3130  0329  0865               	movf	_n_green_duration+1,w
  3131  032A  1803               	skipnc
  3132  032B  0A65               	incf	_n_green_duration+1,w
  3133  032C  0767               	addwf	_w_green_duration+1,w
  3134  032D  00DB               	movwf	??_Startup_W_Go_Fsm_Proc+1
  3135  032E  0862               	movf	_s_green_duration,w
  3136  032F  075A               	addwf	??_Startup_W_Go_Fsm_Proc,w
  3137  0330  00DC               	movwf	??_Startup_W_Go_Fsm_Proc+2
  3138  0331  0863               	movf	_s_green_duration+1,w
  3139  0332  1803               	skipnc
  3140  0333  0A63               	incf	_s_green_duration+1,w
  3141  0334  075B               	addwf	??_Startup_W_Go_Fsm_Proc+1,w
  3142  0335  00DD               	movwf	??_Startup_W_Go_Fsm_Proc+3
  3143  0336  085C               	movf	??_Startup_W_Go_Fsm_Proc+2,w
  3144  0337  3E0F               	addlw	15
  3145  0338  00B6               	movwf	_cur_e_green_left_secs
  3146  0339  085D               	movf	??_Startup_W_Go_Fsm_Proc+3,w
  3147  033A  1803               	skipnc
  3148  033B  3E01               	addlw	1
  3149  033C  3E00               	addlw	0
  3150  033D  00B7               	movwf	_cur_e_green_left_secs+1
  3151                           
  3152                           ;timer13.c: 522: cur_w_red_left_secs = w_green_duration + (5);
  3153  033E  0866               	movf	_w_green_duration,w
  3154  033F  3E05               	addlw	5
  3155  0340  00B2               	movwf	_cur_w_red_left_secs
  3156  0341  0867               	movf	_w_green_duration+1,w
  3157  0342  1803               	skipnc
  3158  0343  3E01               	addlw	1
  3159  0344  3E00               	addlw	0
  3160  0345  00B3               	movwf	_cur_w_red_left_secs+1
  3161                           
  3162                           ;timer13.c: 523: cur_w_yellow_left_secs = w_green_duration;
  3163  0346  0867               	movf	_w_green_duration+1,w
  3164  0347  00B1               	movwf	_cur_w_yellow_left_secs+1
  3165  0348  0866               	movf	_w_green_duration,w
  3166  0349  00B0               	movwf	_cur_w_yellow_left_secs
  3167                           
  3168                           ;timer13.c: 524: cur_w_green_left_secs = w_green_duration;
  3169  034A  0867               	movf	_w_green_duration+1,w
  3170  034B  00AF               	movwf	_cur_w_green_left_secs+1
  3171  034C  0866               	movf	_w_green_duration,w
  3172  034D  00AE               	movwf	_cur_w_green_left_secs
  3173                           
  3174                           ;timer13.c: 525: cur_n_red_left_secs = w_green_duration + (5) ;
  3175  034E  0866               	movf	_w_green_duration,w
  3176  034F  3E05               	addlw	5
  3177  0350  00AA               	movwf	_cur_n_red_left_secs
  3178  0351  0867               	movf	_w_green_duration+1,w
  3179  0352  1803               	skipnc
  3180  0353  3E01               	addlw	1
  3181  0354  3E00               	addlw	0
  3182  0355  00AB               	movwf	_cur_n_red_left_secs+1
  3183                           
  3184                           ;timer13.c: 526: cur_n_yellow_left_secs = w_green_duration + (5) + n_green_duration;
  3185  0356  0864               	movf	_n_green_duration,w
  3186  0357  0766               	addwf	_w_green_duration,w
  3187  0358  00DA               	movwf	??_Startup_W_Go_Fsm_Proc
  3188  0359  0865               	movf	_n_green_duration+1,w
  3189  035A  1803               	skipnc
  3190  035B  0A65               	incf	_n_green_duration+1,w
  3191  035C  0767               	addwf	_w_green_duration+1,w
  3192  035D  00DB               	movwf	??_Startup_W_Go_Fsm_Proc+1
  3193  035E  085A               	movf	??_Startup_W_Go_Fsm_Proc,w
  3194  035F  3E05               	addlw	5
  3195  0360  00A8               	movwf	_cur_n_yellow_left_secs
  3196  0361  085B               	movf	??_Startup_W_Go_Fsm_Proc+1,w
  3197  0362  1803               	skipnc
  3198  0363  3E01               	addlw	1
  3199  0364  3E00               	addlw	0
  3200  0365  00A9               	movwf	_cur_n_yellow_left_secs+1
  3201                           
  3202                           ;timer13.c: 527: cur_n_green_left_secs = w_green_duration + (5) ;
  3203  0366  0866               	movf	_w_green_duration,w
  3204  0367  3E05               	addlw	5
  3205  0368  00A6               	movwf	_cur_n_green_left_secs
  3206  0369  0867               	movf	_w_green_duration+1,w
  3207  036A  1803               	skipnc
  3208  036B  3E01               	addlw	1
  3209  036C  3E00               	addlw	0
  3210  036D  00A7               	movwf	_cur_n_green_left_secs+1
  3211                           
  3212                           ;timer13.c: 528: cur_s_red_left_secs = w_green_duration + (5) + n_green_duration + (5);
  3213  036E  0864               	movf	_n_green_duration,w
  3214  036F  0766               	addwf	_w_green_duration,w
  3215  0370  00DA               	movwf	??_Startup_W_Go_Fsm_Proc
  3216  0371  0865               	movf	_n_green_duration+1,w
  3217  0372  1803               	skipnc
  3218  0373  0A65               	incf	_n_green_duration+1,w
  3219  0374  0767               	addwf	_w_green_duration+1,w
  3220  0375  00DB               	movwf	??_Startup_W_Go_Fsm_Proc+1
  3221  0376  085A               	movf	??_Startup_W_Go_Fsm_Proc,w
  3222  0377  3E0A               	addlw	10
  3223  0378  00A4               	movwf	_cur_s_red_left_secs
  3224  0379  085B               	movf	??_Startup_W_Go_Fsm_Proc+1,w
  3225  037A  1803               	skipnc
  3226  037B  3E01               	addlw	1
  3227  037C  3E00               	addlw	0
  3228  037D  00A5               	movwf	_cur_s_red_left_secs+1
  3229                           
  3230                           ;timer13.c: 529: cur_s_yellow_left_secs = w_green_duration + (5) + n_green_duration + (5
      +                          ) + s_green_duration;
  3231  037E  0864               	movf	_n_green_duration,w
  3232  037F  0766               	addwf	_w_green_duration,w
  3233  0380  00DA               	movwf	??_Startup_W_Go_Fsm_Proc
  3234  0381  0865               	movf	_n_green_duration+1,w
  3235  0382  1803               	skipnc
  3236  0383  0A65               	incf	_n_green_duration+1,w
  3237  0384  0767               	addwf	_w_green_duration+1,w
  3238  0385  00DB               	movwf	??_Startup_W_Go_Fsm_Proc+1
  3239  0386  0862               	movf	_s_green_duration,w
  3240  0387  075A               	addwf	??_Startup_W_Go_Fsm_Proc,w
  3241  0388  00DC               	movwf	??_Startup_W_Go_Fsm_Proc+2
  3242  0389  0863               	movf	_s_green_duration+1,w
  3243  038A  1803               	skipnc
  3244  038B  0A63               	incf	_s_green_duration+1,w
  3245  038C  075B               	addwf	??_Startup_W_Go_Fsm_Proc+1,w
  3246  038D  00DD               	movwf	??_Startup_W_Go_Fsm_Proc+3
  3247  038E  085C               	movf	??_Startup_W_Go_Fsm_Proc+2,w
  3248  038F  3E0A               	addlw	10
  3249  0390  00A2               	movwf	_cur_s_yellow_left_secs
  3250  0391  085D               	movf	??_Startup_W_Go_Fsm_Proc+3,w
  3251  0392  1803               	skipnc
  3252  0393  3E01               	addlw	1
  3253  0394  3E00               	addlw	0
  3254  0395  00A3               	movwf	_cur_s_yellow_left_secs+1
  3255                           
  3256                           ;timer13.c: 530: cur_s_green_left_secs = w_green_duration + (5) + n_green_duration + (5)
      +                          ;
  3257  0396  0864               	movf	_n_green_duration,w
  3258  0397  0766               	addwf	_w_green_duration,w
  3259  0398  00DA               	movwf	??_Startup_W_Go_Fsm_Proc
  3260  0399  0865               	movf	_n_green_duration+1,w
  3261  039A  1803               	skipnc
  3262  039B  0A65               	incf	_n_green_duration+1,w
  3263  039C  0767               	addwf	_w_green_duration+1,w
  3264  039D  00DB               	movwf	??_Startup_W_Go_Fsm_Proc+1
  3265  039E  085A               	movf	??_Startup_W_Go_Fsm_Proc,w
  3266  039F  3E0A               	addlw	10
  3267  03A0  00A0               	movwf	_cur_s_green_left_secs
  3268  03A1  085B               	movf	??_Startup_W_Go_Fsm_Proc+1,w
  3269  03A2  1803               	skipnc
  3270  03A3  3E01               	addlw	1
  3271  03A4  3E00               	addlw	0
  3272  03A5  00A1               	movwf	_cur_s_green_left_secs+1
  3273                           
  3274                           ;timer13.c: 532: Goto_XY_LCD_Disp((1u), (3u));
  3275  03A6  3001               	movlw	1
  3276  03A7  00F4               	movwf	Goto_XY_LCD_Disp@line_num
  3277  03A8  3000               	movlw	0
  3278  03A9  00F5               	movwf	Goto_XY_LCD_Disp@line_num+1
  3279  03AA  3003               	movlw	3
  3280  03AB  00F6               	movwf	Goto_XY_LCD_Disp@col_num
  3281  03AC  3000               	movlw	0
  3282  03AD  00F7               	movwf	Goto_XY_LCD_Disp@col_num+1
  3283  03AE  160A  118A  26AD  120A  118A  	fcall	_Goto_XY_LCD_Disp
  3284                           
  3285                           ;timer13.c: 533: Data_Str_Disp_LCD(red_disp);
  3286  03B3  301F               	movlw	(low ((_red_disp-__stringbase)| (0+32768)))& (0+255)
  3287  03B4  160A  118A  25D5  120A  118A  	fcall	_Data_Str_Disp_LCD
  3288                           
  3289                           ;timer13.c: 534: Goto_XY_LCD_Disp((2u),(3u));
  3290  03B9  3002               	movlw	2
  3291  03BA  00F4               	movwf	Goto_XY_LCD_Disp@line_num
  3292  03BB  3000               	movlw	0
  3293  03BC  00F5               	movwf	Goto_XY_LCD_Disp@line_num+1
  3294  03BD  3003               	movlw	3
  3295  03BE  00F6               	movwf	Goto_XY_LCD_Disp@col_num
  3296  03BF  3000               	movlw	0
  3297  03C0  00F7               	movwf	Goto_XY_LCD_Disp@col_num+1
  3298  03C1  160A  118A  26AD  120A  118A  	fcall	_Goto_XY_LCD_Disp
  3299                           
  3300                           ;timer13.c: 535: Data_Str_Disp_LCD(green_disp);
  3301  03C6  3016               	movlw	(low ((_green_disp-__stringbase)| (0+32768)))& (0+255)
  3302  03C7  160A  118A  25D5  120A  118A  	fcall	_Data_Str_Disp_LCD
  3303                           
  3304                           ;timer13.c: 536: Goto_XY_LCD_Disp((3u),(3u));
  3305  03CC  3003               	movlw	3
  3306  03CD  00F4               	movwf	Goto_XY_LCD_Disp@line_num
  3307  03CE  3000               	movlw	0
  3308  03CF  00F5               	movwf	Goto_XY_LCD_Disp@line_num+1
  3309  03D0  3003               	movlw	3
  3310  03D1  00F6               	movwf	Goto_XY_LCD_Disp@col_num
  3311  03D2  3000               	movlw	0
  3312  03D3  00F7               	movwf	Goto_XY_LCD_Disp@col_num+1
  3313  03D4  160A  118A  26AD  120A  118A  	fcall	_Goto_XY_LCD_Disp
  3314                           
  3315                           ;timer13.c: 537: Data_Str_Disp_LCD(red_disp);
  3316  03D9  301F               	movlw	(low ((_red_disp-__stringbase)| (0+32768)))& (0+255)
  3317  03DA  160A  118A  25D5  120A  118A  	fcall	_Data_Str_Disp_LCD
  3318                           
  3319                           ;timer13.c: 538: Goto_XY_LCD_Disp((4u),(3u));
  3320  03DF  3004               	movlw	4
  3321  03E0  00F4               	movwf	Goto_XY_LCD_Disp@line_num
  3322  03E1  3000               	movlw	0
  3323  03E2  00F5               	movwf	Goto_XY_LCD_Disp@line_num+1
  3324  03E3  3003               	movlw	3
  3325  03E4  00F6               	movwf	Goto_XY_LCD_Disp@col_num
  3326  03E5  3000               	movlw	0
  3327  03E6  00F7               	movwf	Goto_XY_LCD_Disp@col_num+1
  3328  03E7  160A  118A  26AD  120A  118A  	fcall	_Goto_XY_LCD_Disp
  3329                           
  3330                           ;timer13.c: 539: Data_Str_Disp_LCD(red_disp);
  3331  03EC  301F               	movlw	(low ((_red_disp-__stringbase)| (0+32768)))& (0+255)
  3332  03ED  160A  118A  25D5  120A  118A  	fcall	_Data_Str_Disp_LCD
  3333                           
  3334                           ;timer13.c: 540: W_Go_Fsm_Proc();
  3335  03F2  120A  158A  2297   	fcall	_W_Go_Fsm_Proc
  3336  03F5  0008               	return
  3337  03F6                     __end_of_Startup_W_Go_Fsm_Proc:	
  3338                           
  3339                           	psect	text8
  3340  0A97                     __ptext8:	
  3341 ;; *************** function _W_Go_Fsm_Proc *****************
  3342 ;; Defined at:
  3343 ;;		line 723 in file "timer13.c"
  3344 ;; Parameters:    Size  Location     Type
  3345 ;;		None
  3346 ;; Auto vars:     Size  Location     Type
  3347 ;;		None
  3348 ;; Return value:  Size  Location     Type
  3349 ;;                  1    wreg      void 
  3350 ;; Registers used:
  3351 ;;		wreg, fsr0l, fsr0h, status,2, status,0, pclath, cstack
  3352 ;; Tracked objects:
  3353 ;;		On entry : 0/0
  3354 ;;		On exit  : 0/0
  3355 ;;		Unchanged: 0/0
  3356 ;; Data sizes:     COMMON   BANK0   BANK1   BANK3   BANK2
  3357 ;;      Params:         0       0       0       0       0
  3358 ;;      Locals:         0       0       0       0       0
  3359 ;;      Temps:          0       0       0       0       0
  3360 ;;      Totals:         0       0       0       0       0
  3361 ;;Total ram usage:        0 bytes
  3362 ;; Hardware stack levels used:    1
  3363 ;; Hardware stack levels required when called:    4
  3364 ;; This function calls:
  3365 ;;		_Data_3Digit_Num_Disp_LCD
  3366 ;;		_Goto_XY_LCD_Disp
  3367 ;; This function is called by:
  3368 ;;		_Traffic_Fsm
  3369 ;;		_Startup_W_Go_Fsm_Proc
  3370 ;; This function uses a non-reentrant model
  3371 ;;
  3372                           
  3373                           
  3374                           ;psect for function _W_Go_Fsm_Proc
  3375  0A97                     _W_Go_Fsm_Proc:	
  3376                           
  3377                           ;timer13.c: 725: PORTA = 0x41;
  3378                           
  3379                           ;incstack = 0
  3380                           ; Regs used in _W_Go_Fsm_Proc: [wreg-fsr0h+status,2+status,0+pclath+cstack]
  3381  0A97  3041               	movlw	65
  3382  0A98  1283               	bcf	3,5	;RP0=0, select bank0
  3383  0A99  1303               	bcf	3,6	;RP1=0, select bank0
  3384  0A9A  0085               	movwf	5	;volatile
  3385                           
  3386                           ;timer13.c: 726: PORTC = 0x11;
  3387  0A9B  3011               	movlw	17
  3388  0A9C  0087               	movwf	7	;volatile
  3389                           
  3390                           ;timer13.c: 729: Goto_XY_LCD_Disp((1u), (15U));
  3391  0A9D  3001               	movlw	1
  3392  0A9E  00F4               	movwf	Goto_XY_LCD_Disp@line_num
  3393  0A9F  3000               	movlw	0
  3394  0AA0  00F5               	movwf	Goto_XY_LCD_Disp@line_num+1
  3395  0AA1  300F               	movlw	15
  3396  0AA2  00F6               	movwf	Goto_XY_LCD_Disp@col_num
  3397  0AA3  3000               	movlw	0
  3398  0AA4  00F7               	movwf	Goto_XY_LCD_Disp@col_num+1
  3399  0AA5  160A  118A  26AD  120A  158A  	fcall	_Goto_XY_LCD_Disp
  3400                           
  3401                           ;timer13.c: 730: Data_3Digit_Num_Disp_LCD(cur_e_red_left_secs);
  3402  0AAA  1283               	bcf	3,5	;RP0=0, select bank0
  3403  0AAB  1303               	bcf	3,6	;RP1=0, select bank0
  3404  0AAC  083B               	movf	_cur_e_red_left_secs+1,w
  3405  0AAD  00C3               	movwf	Data_3Digit_Num_Disp_LCD@data_int+1
  3406  0AAE  083A               	movf	_cur_e_red_left_secs,w
  3407  0AAF  00C2               	movwf	Data_3Digit_Num_Disp_LCD@data_int
  3408  0AB0  120A  118A  203B  120A  158A  	fcall	_Data_3Digit_Num_Disp_LCD
  3409                           
  3410                           ;timer13.c: 733: Goto_XY_LCD_Disp((2u), (15U));
  3411  0AB5  3002               	movlw	2
  3412  0AB6  00F4               	movwf	Goto_XY_LCD_Disp@line_num
  3413  0AB7  3000               	movlw	0
  3414  0AB8  00F5               	movwf	Goto_XY_LCD_Disp@line_num+1
  3415  0AB9  300F               	movlw	15
  3416  0ABA  00F6               	movwf	Goto_XY_LCD_Disp@col_num
  3417  0ABB  3000               	movlw	0
  3418  0ABC  00F7               	movwf	Goto_XY_LCD_Disp@col_num+1
  3419  0ABD  160A  118A  26AD  120A  158A  	fcall	_Goto_XY_LCD_Disp
  3420                           
  3421                           ;timer13.c: 734: Data_3Digit_Num_Disp_LCD(cur_w_green_left_secs);
  3422  0AC2  1283               	bcf	3,5	;RP0=0, select bank0
  3423  0AC3  1303               	bcf	3,6	;RP1=0, select bank0
  3424  0AC4  082F               	movf	_cur_w_green_left_secs+1,w
  3425  0AC5  00C3               	movwf	Data_3Digit_Num_Disp_LCD@data_int+1
  3426  0AC6  082E               	movf	_cur_w_green_left_secs,w
  3427  0AC7  00C2               	movwf	Data_3Digit_Num_Disp_LCD@data_int
  3428  0AC8  120A  118A  203B  120A  158A  	fcall	_Data_3Digit_Num_Disp_LCD
  3429                           
  3430                           ;timer13.c: 737: Goto_XY_LCD_Disp((3u), (15U));
  3431  0ACD  3003               	movlw	3
  3432  0ACE  00F4               	movwf	Goto_XY_LCD_Disp@line_num
  3433  0ACF  3000               	movlw	0
  3434  0AD0  00F5               	movwf	Goto_XY_LCD_Disp@line_num+1
  3435  0AD1  300F               	movlw	15
  3436  0AD2  00F6               	movwf	Goto_XY_LCD_Disp@col_num
  3437  0AD3  3000               	movlw	0
  3438  0AD4  00F7               	movwf	Goto_XY_LCD_Disp@col_num+1
  3439  0AD5  160A  118A  26AD  120A  158A  	fcall	_Goto_XY_LCD_Disp
  3440                           
  3441                           ;timer13.c: 738: Data_3Digit_Num_Disp_LCD(cur_n_red_left_secs);
  3442  0ADA  1283               	bcf	3,5	;RP0=0, select bank0
  3443  0ADB  1303               	bcf	3,6	;RP1=0, select bank0
  3444  0ADC  082B               	movf	_cur_n_red_left_secs+1,w
  3445  0ADD  00C3               	movwf	Data_3Digit_Num_Disp_LCD@data_int+1
  3446  0ADE  082A               	movf	_cur_n_red_left_secs,w
  3447  0ADF  00C2               	movwf	Data_3Digit_Num_Disp_LCD@data_int
  3448  0AE0  120A  118A  203B  120A  158A  	fcall	_Data_3Digit_Num_Disp_LCD
  3449                           
  3450                           ;timer13.c: 740: Goto_XY_LCD_Disp((4u), (15U));
  3451  0AE5  3004               	movlw	4
  3452  0AE6  00F4               	movwf	Goto_XY_LCD_Disp@line_num
  3453  0AE7  3000               	movlw	0
  3454  0AE8  00F5               	movwf	Goto_XY_LCD_Disp@line_num+1
  3455  0AE9  300F               	movlw	15
  3456  0AEA  00F6               	movwf	Goto_XY_LCD_Disp@col_num
  3457  0AEB  3000               	movlw	0
  3458  0AEC  00F7               	movwf	Goto_XY_LCD_Disp@col_num+1
  3459  0AED  160A  118A  26AD  120A  158A  	fcall	_Goto_XY_LCD_Disp
  3460                           
  3461                           ;timer13.c: 741: Data_3Digit_Num_Disp_LCD(cur_s_red_left_secs);
  3462  0AF2  1283               	bcf	3,5	;RP0=0, select bank0
  3463  0AF3  1303               	bcf	3,6	;RP1=0, select bank0
  3464  0AF4  0825               	movf	_cur_s_red_left_secs+1,w
  3465  0AF5  00C3               	movwf	Data_3Digit_Num_Disp_LCD@data_int+1
  3466  0AF6  0824               	movf	_cur_s_red_left_secs,w
  3467  0AF7  00C2               	movwf	Data_3Digit_Num_Disp_LCD@data_int
  3468  0AF8  120A  118A  203B   	fcall	_Data_3Digit_Num_Disp_LCD
  3469  0AFB  0008               	return
  3470  0AFC                     __end_of_W_Go_Fsm_Proc:	
  3471                           
  3472                           	psect	text9
  3473  0F0B                     __ptext9:	
  3474 ;; *************** function _Startup_S_Wait_Fsm_Proc *****************
  3475 ;; Defined at:
  3476 ;;		line 651 in file "timer13.c"
  3477 ;; Parameters:    Size  Location     Type
  3478 ;;		None
  3479 ;; Auto vars:     Size  Location     Type
  3480 ;;		None
  3481 ;; Return value:  Size  Location     Type
  3482 ;;                  1    wreg      void 
  3483 ;; Registers used:
  3484 ;;		wreg, fsr0l, fsr0h, status,2, status,0, pclath, cstack
  3485 ;; Tracked objects:
  3486 ;;		On entry : 0/0
  3487 ;;		On exit  : 0/0
  3488 ;;		Unchanged: 0/0
  3489 ;; Data sizes:     COMMON   BANK0   BANK1   BANK3   BANK2
  3490 ;;      Params:         0       0       0       0       0
  3491 ;;      Locals:         0       0       0       0       0
  3492 ;;      Temps:          0       4       0       0       0
  3493 ;;      Totals:         0       4       0       0       0
  3494 ;;Total ram usage:        4 bytes
  3495 ;; Hardware stack levels used:    1
  3496 ;; Hardware stack levels required when called:    5
  3497 ;; This function calls:
  3498 ;;		_Data_Str_Disp_LCD
  3499 ;;		_Goto_XY_LCD_Disp
  3500 ;;		_S_Wait_Fsm_Proc
  3501 ;; This function is called by:
  3502 ;;		_Traffic_Fsm
  3503 ;;		_Traffic_Init
  3504 ;; This function uses a non-reentrant model
  3505 ;;
  3506                           
  3507                           
  3508                           ;psect for function _Startup_S_Wait_Fsm_Proc
  3509  0F0B                     _Startup_S_Wait_Fsm_Proc:	
  3510                           
  3511                           ;timer13.c: 653: cur_e_red_left_secs = (5);
  3512                           
  3513                           ;incstack = 0
  3514                           ; Regs used in _Startup_S_Wait_Fsm_Proc: [wreg-fsr0h+status,2+status,0+pclath+cstack]
  3515  0F0B  3005               	movlw	5
  3516  0F0C  1283               	bcf	3,5	;RP0=0, select bank0
  3517  0F0D  1303               	bcf	3,6	;RP1=0, select bank0
  3518  0F0E  00BA               	movwf	_cur_e_red_left_secs
  3519  0F0F  3000               	movlw	0
  3520  0F10  00BB               	movwf	_cur_e_red_left_secs+1
  3521                           
  3522                           ;timer13.c: 654: cur_e_yellow_left_secs = (5) + e_green_duration;
  3523  0F11  0868               	movf	_e_green_duration,w
  3524  0F12  3E05               	addlw	5
  3525  0F13  00B8               	movwf	_cur_e_yellow_left_secs
  3526  0F14  0869               	movf	_e_green_duration+1,w
  3527  0F15  1803               	skipnc
  3528  0F16  3E01               	addlw	1
  3529  0F17  3E00               	addlw	0
  3530  0F18  00B9               	movwf	_cur_e_yellow_left_secs+1
  3531                           
  3532                           ;timer13.c: 655: cur_e_green_left_secs = (5);
  3533  0F19  3005               	movlw	5
  3534  0F1A  00B6               	movwf	_cur_e_green_left_secs
  3535  0F1B  3000               	movlw	0
  3536  0F1C  00B7               	movwf	_cur_e_green_left_secs+1
  3537                           
  3538                           ;timer13.c: 656: cur_w_red_left_secs = (5) + e_green_duration + (5);
  3539  0F1D  0868               	movf	_e_green_duration,w
  3540  0F1E  3E0A               	addlw	10
  3541  0F1F  00B2               	movwf	_cur_w_red_left_secs
  3542  0F20  0869               	movf	_e_green_duration+1,w
  3543  0F21  1803               	skipnc
  3544  0F22  3E01               	addlw	1
  3545  0F23  3E00               	addlw	0
  3546  0F24  00B3               	movwf	_cur_w_red_left_secs+1
  3547                           
  3548                           ;timer13.c: 657: cur_w_yellow_left_secs = (5) + e_green_duration + (5) + w_green_duratio
      +                          n + (5) ;
  3549  0F25  0866               	movf	_w_green_duration,w
  3550  0F26  0768               	addwf	_e_green_duration,w
  3551  0F27  00DA               	movwf	??_Startup_S_Wait_Fsm_Proc
  3552  0F28  0867               	movf	_w_green_duration+1,w
  3553  0F29  1803               	skipnc
  3554  0F2A  0A67               	incf	_w_green_duration+1,w
  3555  0F2B  0769               	addwf	_e_green_duration+1,w
  3556  0F2C  00DB               	movwf	??_Startup_S_Wait_Fsm_Proc+1
  3557  0F2D  085A               	movf	??_Startup_S_Wait_Fsm_Proc,w
  3558  0F2E  3E0F               	addlw	15
  3559  0F2F  00B0               	movwf	_cur_w_yellow_left_secs
  3560  0F30  085B               	movf	??_Startup_S_Wait_Fsm_Proc+1,w
  3561  0F31  1803               	skipnc
  3562  0F32  3E01               	addlw	1
  3563  0F33  3E00               	addlw	0
  3564  0F34  00B1               	movwf	_cur_w_yellow_left_secs+1
  3565                           
  3566                           ;timer13.c: 658: cur_w_green_left_secs = (5) + e_green_duration + (5);
  3567  0F35  0868               	movf	_e_green_duration,w
  3568  0F36  3E0A               	addlw	10
  3569  0F37  00AE               	movwf	_cur_w_green_left_secs
  3570  0F38  0869               	movf	_e_green_duration+1,w
  3571  0F39  1803               	skipnc
  3572  0F3A  3E01               	addlw	1
  3573  0F3B  3E00               	addlw	0
  3574  0F3C  00AF               	movwf	_cur_w_green_left_secs+1
  3575                           
  3576                           ;timer13.c: 659: cur_n_red_left_secs = (5) + e_green_duration + (5) + w_green_duration +
      +                           (5);
  3577  0F3D  0866               	movf	_w_green_duration,w
  3578  0F3E  0768               	addwf	_e_green_duration,w
  3579  0F3F  00DA               	movwf	??_Startup_S_Wait_Fsm_Proc
  3580  0F40  0867               	movf	_w_green_duration+1,w
  3581  0F41  1803               	skipnc
  3582  0F42  0A67               	incf	_w_green_duration+1,w
  3583  0F43  0769               	addwf	_e_green_duration+1,w
  3584  0F44  00DB               	movwf	??_Startup_S_Wait_Fsm_Proc+1
  3585  0F45  085A               	movf	??_Startup_S_Wait_Fsm_Proc,w
  3586  0F46  3E0F               	addlw	15
  3587  0F47  00AA               	movwf	_cur_n_red_left_secs
  3588  0F48  085B               	movf	??_Startup_S_Wait_Fsm_Proc+1,w
  3589  0F49  1803               	skipnc
  3590  0F4A  3E01               	addlw	1
  3591  0F4B  3E00               	addlw	0
  3592  0F4C  00AB               	movwf	_cur_n_red_left_secs+1
  3593                           
  3594                           ;timer13.c: 660: cur_n_yellow_left_secs = (5) + e_green_duration + (5) + w_green_duratio
      +                          n + (5) + n_green_duration ;
  3595  0F4D  0866               	movf	_w_green_duration,w
  3596  0F4E  0768               	addwf	_e_green_duration,w
  3597  0F4F  00DA               	movwf	??_Startup_S_Wait_Fsm_Proc
  3598  0F50  0867               	movf	_w_green_duration+1,w
  3599  0F51  1803               	skipnc
  3600  0F52  0A67               	incf	_w_green_duration+1,w
  3601  0F53  0769               	addwf	_e_green_duration+1,w
  3602  0F54  00DB               	movwf	??_Startup_S_Wait_Fsm_Proc+1
  3603  0F55  0864               	movf	_n_green_duration,w
  3604  0F56  075A               	addwf	??_Startup_S_Wait_Fsm_Proc,w
  3605  0F57  00DC               	movwf	??_Startup_S_Wait_Fsm_Proc+2
  3606  0F58  0865               	movf	_n_green_duration+1,w
  3607  0F59  1803               	skipnc
  3608  0F5A  0A65               	incf	_n_green_duration+1,w
  3609  0F5B  075B               	addwf	??_Startup_S_Wait_Fsm_Proc+1,w
  3610  0F5C  00DD               	movwf	??_Startup_S_Wait_Fsm_Proc+3
  3611  0F5D  085C               	movf	??_Startup_S_Wait_Fsm_Proc+2,w
  3612  0F5E  3E0F               	addlw	15
  3613  0F5F  00A8               	movwf	_cur_n_yellow_left_secs
  3614  0F60  085D               	movf	??_Startup_S_Wait_Fsm_Proc+3,w
  3615  0F61  1803               	skipnc
  3616  0F62  3E01               	addlw	1
  3617  0F63  3E00               	addlw	0
  3618  0F64  00A9               	movwf	_cur_n_yellow_left_secs+1
  3619                           
  3620                           ;timer13.c: 661: cur_n_green_left_secs = (5) + e_green_duration + (5) + w_green_duration
      +                           + (5) + n_green_duration;
  3621  0F65  0866               	movf	_w_green_duration,w
  3622  0F66  0768               	addwf	_e_green_duration,w
  3623  0F67  00DA               	movwf	??_Startup_S_Wait_Fsm_Proc
  3624  0F68  0867               	movf	_w_green_duration+1,w
  3625  0F69  1803               	skipnc
  3626  0F6A  0A67               	incf	_w_green_duration+1,w
  3627  0F6B  0769               	addwf	_e_green_duration+1,w
  3628  0F6C  00DB               	movwf	??_Startup_S_Wait_Fsm_Proc+1
  3629  0F6D  0864               	movf	_n_green_duration,w
  3630  0F6E  075A               	addwf	??_Startup_S_Wait_Fsm_Proc,w
  3631  0F6F  00DC               	movwf	??_Startup_S_Wait_Fsm_Proc+2
  3632  0F70  0865               	movf	_n_green_duration+1,w
  3633  0F71  1803               	skipnc
  3634  0F72  0A65               	incf	_n_green_duration+1,w
  3635  0F73  075B               	addwf	??_Startup_S_Wait_Fsm_Proc+1,w
  3636  0F74  00DD               	movwf	??_Startup_S_Wait_Fsm_Proc+3
  3637  0F75  085C               	movf	??_Startup_S_Wait_Fsm_Proc+2,w
  3638  0F76  3E0F               	addlw	15
  3639  0F77  00A6               	movwf	_cur_n_green_left_secs
  3640  0F78  085D               	movf	??_Startup_S_Wait_Fsm_Proc+3,w
  3641  0F79  1803               	skipnc
  3642  0F7A  3E01               	addlw	1
  3643  0F7B  3E00               	addlw	0
  3644  0F7C  00A7               	movwf	_cur_n_green_left_secs+1
  3645                           
  3646                           ;timer13.c: 662: cur_s_red_left_secs = (5);
  3647  0F7D  3005               	movlw	5
  3648  0F7E  00A4               	movwf	_cur_s_red_left_secs
  3649  0F7F  3000               	movlw	0
  3650  0F80  00A5               	movwf	_cur_s_red_left_secs+1
  3651                           
  3652                           ;timer13.c: 663: cur_s_yellow_left_secs = (5) ;
  3653  0F81  3005               	movlw	5
  3654  0F82  00A2               	movwf	_cur_s_yellow_left_secs
  3655  0F83  3000               	movlw	0
  3656  0F84  00A3               	movwf	_cur_s_yellow_left_secs+1
  3657                           
  3658                           ;timer13.c: 664: cur_s_green_left_secs = (5) + e_green_duration + (5) + w_green_duration
      +                           + (5) + n_green_duration + (5);
  3659  0F85  0866               	movf	_w_green_duration,w
  3660  0F86  0768               	addwf	_e_green_duration,w
  3661  0F87  00DA               	movwf	??_Startup_S_Wait_Fsm_Proc
  3662  0F88  0867               	movf	_w_green_duration+1,w
  3663  0F89  1803               	skipnc
  3664  0F8A  0A67               	incf	_w_green_duration+1,w
  3665  0F8B  0769               	addwf	_e_green_duration+1,w
  3666  0F8C  00DB               	movwf	??_Startup_S_Wait_Fsm_Proc+1
  3667  0F8D  0864               	movf	_n_green_duration,w
  3668  0F8E  075A               	addwf	??_Startup_S_Wait_Fsm_Proc,w
  3669  0F8F  00DC               	movwf	??_Startup_S_Wait_Fsm_Proc+2
  3670  0F90  0865               	movf	_n_green_duration+1,w
  3671  0F91  1803               	skipnc
  3672  0F92  0A65               	incf	_n_green_duration+1,w
  3673  0F93  075B               	addwf	??_Startup_S_Wait_Fsm_Proc+1,w
  3674  0F94  00DD               	movwf	??_Startup_S_Wait_Fsm_Proc+3
  3675  0F95  085C               	movf	??_Startup_S_Wait_Fsm_Proc+2,w
  3676  0F96  3E14               	addlw	20
  3677  0F97  00A0               	movwf	_cur_s_green_left_secs
  3678  0F98  085D               	movf	??_Startup_S_Wait_Fsm_Proc+3,w
  3679  0F99  1803               	skipnc
  3680  0F9A  3E01               	addlw	1
  3681  0F9B  3E00               	addlw	0
  3682  0F9C  00A1               	movwf	_cur_s_green_left_secs+1
  3683                           
  3684                           ;timer13.c: 666: Goto_XY_LCD_Disp((4u), (14U));
  3685  0F9D  3004               	movlw	4
  3686  0F9E  00F4               	movwf	Goto_XY_LCD_Disp@line_num
  3687  0F9F  3000               	movlw	0
  3688  0FA0  00F5               	movwf	Goto_XY_LCD_Disp@line_num+1
  3689  0FA1  300E               	movlw	14
  3690  0FA2  00F6               	movwf	Goto_XY_LCD_Disp@col_num
  3691  0FA3  3000               	movlw	0
  3692  0FA4  00F7               	movwf	Goto_XY_LCD_Disp@col_num+1
  3693  0FA5  160A  118A  26AD  120A  158A  	fcall	_Goto_XY_LCD_Disp
  3694                           
  3695                           ;timer13.c: 667: Data_Str_Disp_LCD(blank_traffic_disp);
  3696  0FAA  302F               	movlw	(low ((_blank_traffic_disp-__stringbase)| (0+32768)))& (0+255)
  3697  0FAB  160A  118A  25D5  120A  158A  	fcall	_Data_Str_Disp_LCD
  3698                           
  3699                           ;timer13.c: 669: Goto_XY_LCD_Disp((1u), (3u));
  3700  0FB0  3001               	movlw	1
  3701  0FB1  00F4               	movwf	Goto_XY_LCD_Disp@line_num
  3702  0FB2  3000               	movlw	0
  3703  0FB3  00F5               	movwf	Goto_XY_LCD_Disp@line_num+1
  3704  0FB4  3003               	movlw	3
  3705  0FB5  00F6               	movwf	Goto_XY_LCD_Disp@col_num
  3706  0FB6  3000               	movlw	0
  3707  0FB7  00F7               	movwf	Goto_XY_LCD_Disp@col_num+1
  3708  0FB8  160A  118A  26AD  120A  158A  	fcall	_Goto_XY_LCD_Disp
  3709                           
  3710                           ;timer13.c: 670: Data_Str_Disp_LCD(red_disp);
  3711  0FBD  301F               	movlw	(low ((_red_disp-__stringbase)| (0+32768)))& (0+255)
  3712  0FBE  160A  118A  25D5  120A  158A  	fcall	_Data_Str_Disp_LCD
  3713                           
  3714                           ;timer13.c: 671: Goto_XY_LCD_Disp((2u),(3u));
  3715  0FC3  3002               	movlw	2
  3716  0FC4  00F4               	movwf	Goto_XY_LCD_Disp@line_num
  3717  0FC5  3000               	movlw	0
  3718  0FC6  00F5               	movwf	Goto_XY_LCD_Disp@line_num+1
  3719  0FC7  3003               	movlw	3
  3720  0FC8  00F6               	movwf	Goto_XY_LCD_Disp@col_num
  3721  0FC9  3000               	movlw	0
  3722  0FCA  00F7               	movwf	Goto_XY_LCD_Disp@col_num+1
  3723  0FCB  160A  118A  26AD  120A  158A  	fcall	_Goto_XY_LCD_Disp
  3724                           
  3725                           ;timer13.c: 672: Data_Str_Disp_LCD(red_disp);
  3726  0FD0  301F               	movlw	(low ((_red_disp-__stringbase)| (0+32768)))& (0+255)
  3727  0FD1  160A  118A  25D5  120A  158A  	fcall	_Data_Str_Disp_LCD
  3728                           
  3729                           ;timer13.c: 673: Goto_XY_LCD_Disp((3u),(3u));
  3730  0FD6  3003               	movlw	3
  3731  0FD7  00F4               	movwf	Goto_XY_LCD_Disp@line_num
  3732  0FD8  3000               	movlw	0
  3733  0FD9  00F5               	movwf	Goto_XY_LCD_Disp@line_num+1
  3734  0FDA  3003               	movlw	3
  3735  0FDB  00F6               	movwf	Goto_XY_LCD_Disp@col_num
  3736  0FDC  3000               	movlw	0
  3737  0FDD  00F7               	movwf	Goto_XY_LCD_Disp@col_num+1
  3738  0FDE  160A  118A  26AD  120A  158A  	fcall	_Goto_XY_LCD_Disp
  3739                           
  3740                           ;timer13.c: 674: Data_Str_Disp_LCD(red_disp);
  3741  0FE3  301F               	movlw	(low ((_red_disp-__stringbase)| (0+32768)))& (0+255)
  3742  0FE4  160A  118A  25D5  120A  158A  	fcall	_Data_Str_Disp_LCD
  3743                           
  3744                           ;timer13.c: 675: Goto_XY_LCD_Disp((4u),(3u));
  3745  0FE9  3004               	movlw	4
  3746  0FEA  00F4               	movwf	Goto_XY_LCD_Disp@line_num
  3747  0FEB  3000               	movlw	0
  3748  0FEC  00F5               	movwf	Goto_XY_LCD_Disp@line_num+1
  3749  0FED  3003               	movlw	3
  3750  0FEE  00F6               	movwf	Goto_XY_LCD_Disp@col_num
  3751  0FEF  3000               	movlw	0
  3752  0FF0  00F7               	movwf	Goto_XY_LCD_Disp@col_num+1
  3753  0FF1  160A  118A  26AD  120A  158A  	fcall	_Goto_XY_LCD_Disp
  3754                           
  3755                           ;timer13.c: 676: Data_Str_Disp_LCD(yellow_disp);
  3756  0FF6  300D               	movlw	(low ((_yellow_disp-__stringbase)| (0+32768)))& (0+255)
  3757  0FF7  160A  118A  25D5  120A  158A  	fcall	_Data_Str_Disp_LCD
  3758                           
  3759                           ;timer13.c: 678: S_Wait_Fsm_Proc();
  3760  0FFC  120A  158A  2232   	fcall	_S_Wait_Fsm_Proc
  3761  0FFF  0008               	return
  3762  1000                     __end_of_Startup_S_Wait_Fsm_Proc:	
  3763                           
  3764                           	psect	text10
  3765  0A32                     __ptext10:	
  3766 ;; *************** function _S_Wait_Fsm_Proc *****************
  3767 ;; Defined at:
  3768 ;;		line 832 in file "timer13.c"
  3769 ;; Parameters:    Size  Location     Type
  3770 ;;		None
  3771 ;; Auto vars:     Size  Location     Type
  3772 ;;		None
  3773 ;; Return value:  Size  Location     Type
  3774 ;;                  1    wreg      void 
  3775 ;; Registers used:
  3776 ;;		wreg, fsr0l, fsr0h, status,2, status,0, pclath, cstack
  3777 ;; Tracked objects:
  3778 ;;		On entry : 0/0
  3779 ;;		On exit  : 0/0
  3780 ;;		Unchanged: 0/0
  3781 ;; Data sizes:     COMMON   BANK0   BANK1   BANK3   BANK2
  3782 ;;      Params:         0       0       0       0       0
  3783 ;;      Locals:         0       0       0       0       0
  3784 ;;      Temps:          0       0       0       0       0
  3785 ;;      Totals:         0       0       0       0       0
  3786 ;;Total ram usage:        0 bytes
  3787 ;; Hardware stack levels used:    1
  3788 ;; Hardware stack levels required when called:    4
  3789 ;; This function calls:
  3790 ;;		_Data_3Digit_Num_Disp_LCD
  3791 ;;		_Goto_XY_LCD_Disp
  3792 ;; This function is called by:
  3793 ;;		_Traffic_Fsm
  3794 ;;		_Startup_S_Wait_Fsm_Proc
  3795 ;; This function uses a non-reentrant model
  3796 ;;
  3797                           
  3798                           
  3799                           ;psect for function _S_Wait_Fsm_Proc
  3800  0A32                     _S_Wait_Fsm_Proc:	
  3801                           
  3802                           ;timer13.c: 834: PORTA = 0x11;
  3803                           
  3804                           ;incstack = 0
  3805                           ; Regs used in _S_Wait_Fsm_Proc: [wreg-fsr0h+status,2+status,0+pclath+cstack]
  3806  0A32  3011               	movlw	17
  3807  0A33  1283               	bcf	3,5	;RP0=0, select bank0
  3808  0A34  1303               	bcf	3,6	;RP1=0, select bank0
  3809  0A35  0085               	movwf	5	;volatile
  3810                           
  3811                           ;timer13.c: 835: PORTC = 0x21;
  3812  0A36  3021               	movlw	33
  3813  0A37  0087               	movwf	7	;volatile
  3814                           
  3815                           ;timer13.c: 838: Goto_XY_LCD_Disp((1u), (15U));
  3816  0A38  3001               	movlw	1
  3817  0A39  00F4               	movwf	Goto_XY_LCD_Disp@line_num
  3818  0A3A  3000               	movlw	0
  3819  0A3B  00F5               	movwf	Goto_XY_LCD_Disp@line_num+1
  3820  0A3C  300F               	movlw	15
  3821  0A3D  00F6               	movwf	Goto_XY_LCD_Disp@col_num
  3822  0A3E  3000               	movlw	0
  3823  0A3F  00F7               	movwf	Goto_XY_LCD_Disp@col_num+1
  3824  0A40  160A  118A  26AD  120A  158A  	fcall	_Goto_XY_LCD_Disp
  3825                           
  3826                           ;timer13.c: 839: Data_3Digit_Num_Disp_LCD(cur_e_red_left_secs);
  3827  0A45  1283               	bcf	3,5	;RP0=0, select bank0
  3828  0A46  1303               	bcf	3,6	;RP1=0, select bank0
  3829  0A47  083B               	movf	_cur_e_red_left_secs+1,w
  3830  0A48  00C3               	movwf	Data_3Digit_Num_Disp_LCD@data_int+1
  3831  0A49  083A               	movf	_cur_e_red_left_secs,w
  3832  0A4A  00C2               	movwf	Data_3Digit_Num_Disp_LCD@data_int
  3833  0A4B  120A  118A  203B  120A  158A  	fcall	_Data_3Digit_Num_Disp_LCD
  3834                           
  3835                           ;timer13.c: 842: Goto_XY_LCD_Disp((2u), (15U));
  3836  0A50  3002               	movlw	2
  3837  0A51  00F4               	movwf	Goto_XY_LCD_Disp@line_num
  3838  0A52  3000               	movlw	0
  3839  0A53  00F5               	movwf	Goto_XY_LCD_Disp@line_num+1
  3840  0A54  300F               	movlw	15
  3841  0A55  00F6               	movwf	Goto_XY_LCD_Disp@col_num
  3842  0A56  3000               	movlw	0
  3843  0A57  00F7               	movwf	Goto_XY_LCD_Disp@col_num+1
  3844  0A58  160A  118A  26AD  120A  158A  	fcall	_Goto_XY_LCD_Disp
  3845                           
  3846                           ;timer13.c: 843: Data_3Digit_Num_Disp_LCD(cur_w_red_left_secs);
  3847  0A5D  1283               	bcf	3,5	;RP0=0, select bank0
  3848  0A5E  1303               	bcf	3,6	;RP1=0, select bank0
  3849  0A5F  0833               	movf	_cur_w_red_left_secs+1,w
  3850  0A60  00C3               	movwf	Data_3Digit_Num_Disp_LCD@data_int+1
  3851  0A61  0832               	movf	_cur_w_red_left_secs,w
  3852  0A62  00C2               	movwf	Data_3Digit_Num_Disp_LCD@data_int
  3853  0A63  120A  118A  203B  120A  158A  	fcall	_Data_3Digit_Num_Disp_LCD
  3854                           
  3855                           ;timer13.c: 846: Goto_XY_LCD_Disp((3u), (15U));
  3856  0A68  3003               	movlw	3
  3857  0A69  00F4               	movwf	Goto_XY_LCD_Disp@line_num
  3858  0A6A  3000               	movlw	0
  3859  0A6B  00F5               	movwf	Goto_XY_LCD_Disp@line_num+1
  3860  0A6C  300F               	movlw	15
  3861  0A6D  00F6               	movwf	Goto_XY_LCD_Disp@col_num
  3862  0A6E  3000               	movlw	0
  3863  0A6F  00F7               	movwf	Goto_XY_LCD_Disp@col_num+1
  3864  0A70  160A  118A  26AD  120A  158A  	fcall	_Goto_XY_LCD_Disp
  3865                           
  3866                           ;timer13.c: 847: Data_3Digit_Num_Disp_LCD(cur_n_red_left_secs);
  3867  0A75  1283               	bcf	3,5	;RP0=0, select bank0
  3868  0A76  1303               	bcf	3,6	;RP1=0, select bank0
  3869  0A77  082B               	movf	_cur_n_red_left_secs+1,w
  3870  0A78  00C3               	movwf	Data_3Digit_Num_Disp_LCD@data_int+1
  3871  0A79  082A               	movf	_cur_n_red_left_secs,w
  3872  0A7A  00C2               	movwf	Data_3Digit_Num_Disp_LCD@data_int
  3873  0A7B  120A  118A  203B  120A  158A  	fcall	_Data_3Digit_Num_Disp_LCD
  3874                           
  3875                           ;timer13.c: 850: Goto_XY_LCD_Disp((4u), (15U));
  3876  0A80  3004               	movlw	4
  3877  0A81  00F4               	movwf	Goto_XY_LCD_Disp@line_num
  3878  0A82  3000               	movlw	0
  3879  0A83  00F5               	movwf	Goto_XY_LCD_Disp@line_num+1
  3880  0A84  300F               	movlw	15
  3881  0A85  00F6               	movwf	Goto_XY_LCD_Disp@col_num
  3882  0A86  3000               	movlw	0
  3883  0A87  00F7               	movwf	Goto_XY_LCD_Disp@col_num+1
  3884  0A88  160A  118A  26AD  120A  158A  	fcall	_Goto_XY_LCD_Disp
  3885                           
  3886                           ;timer13.c: 851: Data_3Digit_Num_Disp_LCD(cur_s_yellow_left_secs);
  3887  0A8D  1283               	bcf	3,5	;RP0=0, select bank0
  3888  0A8E  1303               	bcf	3,6	;RP1=0, select bank0
  3889  0A8F  0823               	movf	_cur_s_yellow_left_secs+1,w
  3890  0A90  00C3               	movwf	Data_3Digit_Num_Disp_LCD@data_int+1
  3891  0A91  0822               	movf	_cur_s_yellow_left_secs,w
  3892  0A92  00C2               	movwf	Data_3Digit_Num_Disp_LCD@data_int
  3893  0A93  120A  118A  203B   	fcall	_Data_3Digit_Num_Disp_LCD
  3894  0A96  0008               	return
  3895  0A97                     __end_of_S_Wait_Fsm_Proc:	
  3896                           
  3897                           	psect	text11
  3898  01E2                     __ptext11:	
  3899 ;; *************** function _Startup_S_Go_Fsm_Proc *****************
  3900 ;; Defined at:
  3901 ;;		line 625 in file "timer13.c"
  3902 ;; Parameters:    Size  Location     Type
  3903 ;;		None
  3904 ;; Auto vars:     Size  Location     Type
  3905 ;;		None
  3906 ;; Return value:  Size  Location     Type
  3907 ;;                  1    wreg      void 
  3908 ;; Registers used:
  3909 ;;		wreg, fsr0l, fsr0h, status,2, status,0, pclath, cstack
  3910 ;; Tracked objects:
  3911 ;;		On entry : 0/0
  3912 ;;		On exit  : 0/0
  3913 ;;		Unchanged: 0/0
  3914 ;; Data sizes:     COMMON   BANK0   BANK1   BANK3   BANK2
  3915 ;;      Params:         0       0       0       0       0
  3916 ;;      Locals:         0       0       0       0       0
  3917 ;;      Temps:          0       6       0       0       0
  3918 ;;      Totals:         0       6       0       0       0
  3919 ;;Total ram usage:        6 bytes
  3920 ;; Hardware stack levels used:    1
  3921 ;; Hardware stack levels required when called:    5
  3922 ;; This function calls:
  3923 ;;		_Data_Str_Disp_LCD
  3924 ;;		_Goto_XY_LCD_Disp
  3925 ;;		_S_Go_Fsm_Proc
  3926 ;; This function is called by:
  3927 ;;		_Traffic_Fsm
  3928 ;;		_Traffic_Init
  3929 ;; This function uses a non-reentrant model
  3930 ;;
  3931                           
  3932                           
  3933                           ;psect for function _Startup_S_Go_Fsm_Proc
  3934  01E2                     _Startup_S_Go_Fsm_Proc:	
  3935                           
  3936                           ;timer13.c: 627: cur_e_red_left_secs = s_green_duration + (5);
  3937                           
  3938                           ;incstack = 0
  3939                           ; Regs used in _Startup_S_Go_Fsm_Proc: [wreg-fsr0h+status,2+status,0+pclath+cstack]
  3940  01E2  1283               	bcf	3,5	;RP0=0, select bank0
  3941  01E3  1303               	bcf	3,6	;RP1=0, select bank0
  3942  01E4  0862               	movf	_s_green_duration,w
  3943  01E5  3E05               	addlw	5
  3944  01E6  00BA               	movwf	_cur_e_red_left_secs
  3945  01E7  0863               	movf	_s_green_duration+1,w
  3946  01E8  1803               	skipnc
  3947  01E9  3E01               	addlw	1
  3948  01EA  3E00               	addlw	0
  3949  01EB  00BB               	movwf	_cur_e_red_left_secs+1
  3950                           
  3951                           ;timer13.c: 628: cur_e_yellow_left_secs = s_green_duration + (5) + e_green_duration;
  3952  01EC  0868               	movf	_e_green_duration,w
  3953  01ED  0762               	addwf	_s_green_duration,w
  3954  01EE  00DA               	movwf	??_Startup_S_Go_Fsm_Proc
  3955  01EF  0869               	movf	_e_green_duration+1,w
  3956  01F0  1803               	skipnc
  3957  01F1  0A69               	incf	_e_green_duration+1,w
  3958  01F2  0763               	addwf	_s_green_duration+1,w
  3959  01F3  00DB               	movwf	??_Startup_S_Go_Fsm_Proc+1
  3960  01F4  085A               	movf	??_Startup_S_Go_Fsm_Proc,w
  3961  01F5  3E05               	addlw	5
  3962  01F6  00B8               	movwf	_cur_e_yellow_left_secs
  3963  01F7  085B               	movf	??_Startup_S_Go_Fsm_Proc+1,w
  3964  01F8  1803               	skipnc
  3965  01F9  3E01               	addlw	1
  3966  01FA  3E00               	addlw	0
  3967  01FB  00B9               	movwf	_cur_e_yellow_left_secs+1
  3968                           
  3969                           ;timer13.c: 629: cur_e_green_left_secs = s_green_duration + (5);
  3970  01FC  0862               	movf	_s_green_duration,w
  3971  01FD  3E05               	addlw	5
  3972  01FE  00B6               	movwf	_cur_e_green_left_secs
  3973  01FF  0863               	movf	_s_green_duration+1,w
  3974  0200  1803               	skipnc
  3975  0201  3E01               	addlw	1
  3976  0202  3E00               	addlw	0
  3977  0203  00B7               	movwf	_cur_e_green_left_secs+1
  3978                           
  3979                           ;timer13.c: 630: cur_w_red_left_secs = s_green_duration + (5) + e_green_duration + (5);
  3980  0204  0868               	movf	_e_green_duration,w
  3981  0205  0762               	addwf	_s_green_duration,w
  3982  0206  00DA               	movwf	??_Startup_S_Go_Fsm_Proc
  3983  0207  0869               	movf	_e_green_duration+1,w
  3984  0208  1803               	skipnc
  3985  0209  0A69               	incf	_e_green_duration+1,w
  3986  020A  0763               	addwf	_s_green_duration+1,w
  3987  020B  00DB               	movwf	??_Startup_S_Go_Fsm_Proc+1
  3988  020C  085A               	movf	??_Startup_S_Go_Fsm_Proc,w
  3989  020D  3E0A               	addlw	10
  3990  020E  00B2               	movwf	_cur_w_red_left_secs
  3991  020F  085B               	movf	??_Startup_S_Go_Fsm_Proc+1,w
  3992  0210  1803               	skipnc
  3993  0211  3E01               	addlw	1
  3994  0212  3E00               	addlw	0
  3995  0213  00B3               	movwf	_cur_w_red_left_secs+1
  3996                           
  3997                           ;timer13.c: 631: cur_w_yellow_left_secs = s_green_duration + (5) + e_green_duration + (5
      +                          ) + w_green_duration ;
  3998  0214  0868               	movf	_e_green_duration,w
  3999  0215  0762               	addwf	_s_green_duration,w
  4000  0216  00DA               	movwf	??_Startup_S_Go_Fsm_Proc
  4001  0217  0869               	movf	_e_green_duration+1,w
  4002  0218  1803               	skipnc
  4003  0219  0A69               	incf	_e_green_duration+1,w
  4004  021A  0763               	addwf	_s_green_duration+1,w
  4005  021B  00DB               	movwf	??_Startup_S_Go_Fsm_Proc+1
  4006  021C  0866               	movf	_w_green_duration,w
  4007  021D  075A               	addwf	??_Startup_S_Go_Fsm_Proc,w
  4008  021E  00DC               	movwf	??_Startup_S_Go_Fsm_Proc+2
  4009  021F  0867               	movf	_w_green_duration+1,w
  4010  0220  1803               	skipnc
  4011  0221  0A67               	incf	_w_green_duration+1,w
  4012  0222  075B               	addwf	??_Startup_S_Go_Fsm_Proc+1,w
  4013  0223  00DD               	movwf	??_Startup_S_Go_Fsm_Proc+3
  4014  0224  085C               	movf	??_Startup_S_Go_Fsm_Proc+2,w
  4015  0225  3E0A               	addlw	10
  4016  0226  00B0               	movwf	_cur_w_yellow_left_secs
  4017  0227  085D               	movf	??_Startup_S_Go_Fsm_Proc+3,w
  4018  0228  1803               	skipnc
  4019  0229  3E01               	addlw	1
  4020  022A  3E00               	addlw	0
  4021  022B  00B1               	movwf	_cur_w_yellow_left_secs+1
  4022                           
  4023                           ;timer13.c: 632: cur_w_green_left_secs = s_green_duration + (5) + e_green_duration + (5)
      +                           ;
  4024  022C  0868               	movf	_e_green_duration,w
  4025  022D  0762               	addwf	_s_green_duration,w
  4026  022E  00DA               	movwf	??_Startup_S_Go_Fsm_Proc
  4027  022F  0869               	movf	_e_green_duration+1,w
  4028  0230  1803               	skipnc
  4029  0231  0A69               	incf	_e_green_duration+1,w
  4030  0232  0763               	addwf	_s_green_duration+1,w
  4031  0233  00DB               	movwf	??_Startup_S_Go_Fsm_Proc+1
  4032  0234  085A               	movf	??_Startup_S_Go_Fsm_Proc,w
  4033  0235  3E0A               	addlw	10
  4034  0236  00AE               	movwf	_cur_w_green_left_secs
  4035  0237  085B               	movf	??_Startup_S_Go_Fsm_Proc+1,w
  4036  0238  1803               	skipnc
  4037  0239  3E01               	addlw	1
  4038  023A  3E00               	addlw	0
  4039  023B  00AF               	movwf	_cur_w_green_left_secs+1
  4040                           
  4041                           ;timer13.c: 633: cur_n_red_left_secs = s_green_duration + (5) + e_green_duration + (5) +
      +                           w_green_duration + (5) ;
  4042  023C  0868               	movf	_e_green_duration,w
  4043  023D  0762               	addwf	_s_green_duration,w
  4044  023E  00DA               	movwf	??_Startup_S_Go_Fsm_Proc
  4045  023F  0869               	movf	_e_green_duration+1,w
  4046  0240  1803               	skipnc
  4047  0241  0A69               	incf	_e_green_duration+1,w
  4048  0242  0763               	addwf	_s_green_duration+1,w
  4049  0243  00DB               	movwf	??_Startup_S_Go_Fsm_Proc+1
  4050  0244  0866               	movf	_w_green_duration,w
  4051  0245  075A               	addwf	??_Startup_S_Go_Fsm_Proc,w
  4052  0246  00DC               	movwf	??_Startup_S_Go_Fsm_Proc+2
  4053  0247  0867               	movf	_w_green_duration+1,w
  4054  0248  1803               	skipnc
  4055  0249  0A67               	incf	_w_green_duration+1,w
  4056  024A  075B               	addwf	??_Startup_S_Go_Fsm_Proc+1,w
  4057  024B  00DD               	movwf	??_Startup_S_Go_Fsm_Proc+3
  4058  024C  085C               	movf	??_Startup_S_Go_Fsm_Proc+2,w
  4059  024D  3E0F               	addlw	15
  4060  024E  00AA               	movwf	_cur_n_red_left_secs
  4061  024F  085D               	movf	??_Startup_S_Go_Fsm_Proc+3,w
  4062  0250  1803               	skipnc
  4063  0251  3E01               	addlw	1
  4064  0252  3E00               	addlw	0
  4065  0253  00AB               	movwf	_cur_n_red_left_secs+1
  4066                           
  4067                           ;timer13.c: 634: cur_n_yellow_left_secs = s_green_duration + (5) + e_green_duration + (5
      +                          ) + w_green_duration + (5) + n_green_duration ;
  4068  0254  0868               	movf	_e_green_duration,w
  4069  0255  0762               	addwf	_s_green_duration,w
  4070  0256  00DA               	movwf	??_Startup_S_Go_Fsm_Proc
  4071  0257  0869               	movf	_e_green_duration+1,w
  4072  0258  1803               	skipnc
  4073  0259  0A69               	incf	_e_green_duration+1,w
  4074  025A  0763               	addwf	_s_green_duration+1,w
  4075  025B  00DB               	movwf	??_Startup_S_Go_Fsm_Proc+1
  4076  025C  0866               	movf	_w_green_duration,w
  4077  025D  075A               	addwf	??_Startup_S_Go_Fsm_Proc,w
  4078  025E  00DC               	movwf	??_Startup_S_Go_Fsm_Proc+2
  4079  025F  0867               	movf	_w_green_duration+1,w
  4080  0260  1803               	skipnc
  4081  0261  0A67               	incf	_w_green_duration+1,w
  4082  0262  075B               	addwf	??_Startup_S_Go_Fsm_Proc+1,w
  4083  0263  00DD               	movwf	??_Startup_S_Go_Fsm_Proc+3
  4084  0264  0864               	movf	_n_green_duration,w
  4085  0265  075C               	addwf	??_Startup_S_Go_Fsm_Proc+2,w
  4086  0266  00DE               	movwf	??_Startup_S_Go_Fsm_Proc+4
  4087  0267  0865               	movf	_n_green_duration+1,w
  4088  0268  1803               	skipnc
  4089  0269  0A65               	incf	_n_green_duration+1,w
  4090  026A  075D               	addwf	??_Startup_S_Go_Fsm_Proc+3,w
  4091  026B  00DF               	movwf	??_Startup_S_Go_Fsm_Proc+5
  4092  026C  085E               	movf	??_Startup_S_Go_Fsm_Proc+4,w
  4093  026D  3E0F               	addlw	15
  4094  026E  00A8               	movwf	_cur_n_yellow_left_secs
  4095  026F  085F               	movf	??_Startup_S_Go_Fsm_Proc+5,w
  4096  0270  1803               	skipnc
  4097  0271  3E01               	addlw	1
  4098  0272  3E00               	addlw	0
  4099  0273  00A9               	movwf	_cur_n_yellow_left_secs+1
  4100                           
  4101                           ;timer13.c: 635: cur_n_green_left_secs = s_green_duration + (5) + e_green_duration + (5)
      +                           + w_green_duration + (5) ;
  4102  0274  0868               	movf	_e_green_duration,w
  4103  0275  0762               	addwf	_s_green_duration,w
  4104  0276  00DA               	movwf	??_Startup_S_Go_Fsm_Proc
  4105  0277  0869               	movf	_e_green_duration+1,w
  4106  0278  1803               	skipnc
  4107  0279  0A69               	incf	_e_green_duration+1,w
  4108  027A  0763               	addwf	_s_green_duration+1,w
  4109  027B  00DB               	movwf	??_Startup_S_Go_Fsm_Proc+1
  4110  027C  0866               	movf	_w_green_duration,w
  4111  027D  075A               	addwf	??_Startup_S_Go_Fsm_Proc,w
  4112  027E  00DC               	movwf	??_Startup_S_Go_Fsm_Proc+2
  4113  027F  0867               	movf	_w_green_duration+1,w
  4114  0280  1803               	skipnc
  4115  0281  0A67               	incf	_w_green_duration+1,w
  4116  0282  075B               	addwf	??_Startup_S_Go_Fsm_Proc+1,w
  4117  0283  00DD               	movwf	??_Startup_S_Go_Fsm_Proc+3
  4118  0284  085C               	movf	??_Startup_S_Go_Fsm_Proc+2,w
  4119  0285  3E0F               	addlw	15
  4120  0286  00A6               	movwf	_cur_n_green_left_secs
  4121  0287  085D               	movf	??_Startup_S_Go_Fsm_Proc+3,w
  4122  0288  1803               	skipnc
  4123  0289  3E01               	addlw	1
  4124  028A  3E00               	addlw	0
  4125  028B  00A7               	movwf	_cur_n_green_left_secs+1
  4126                           
  4127                           ;timer13.c: 636: cur_s_red_left_secs = s_green_duration + (5);
  4128  028C  0862               	movf	_s_green_duration,w
  4129  028D  3E05               	addlw	5
  4130  028E  00A4               	movwf	_cur_s_red_left_secs
  4131  028F  0863               	movf	_s_green_duration+1,w
  4132  0290  1803               	skipnc
  4133  0291  3E01               	addlw	1
  4134  0292  3E00               	addlw	0
  4135  0293  00A5               	movwf	_cur_s_red_left_secs+1
  4136                           
  4137                           ;timer13.c: 637: cur_s_yellow_left_secs = s_green_duration;
  4138  0294  0863               	movf	_s_green_duration+1,w
  4139  0295  00A3               	movwf	_cur_s_yellow_left_secs+1
  4140  0296  0862               	movf	_s_green_duration,w
  4141  0297  00A2               	movwf	_cur_s_yellow_left_secs
  4142                           
  4143                           ;timer13.c: 638: cur_s_green_left_secs = s_green_duration ;
  4144  0298  0863               	movf	_s_green_duration+1,w
  4145  0299  00A1               	movwf	_cur_s_green_left_secs+1
  4146  029A  0862               	movf	_s_green_duration,w
  4147  029B  00A0               	movwf	_cur_s_green_left_secs
  4148                           
  4149                           ;timer13.c: 641: Goto_XY_LCD_Disp((1u), (3u));
  4150  029C  3001               	movlw	1
  4151  029D  00F4               	movwf	Goto_XY_LCD_Disp@line_num
  4152  029E  3000               	movlw	0
  4153  029F  00F5               	movwf	Goto_XY_LCD_Disp@line_num+1
  4154  02A0  3003               	movlw	3
  4155  02A1  00F6               	movwf	Goto_XY_LCD_Disp@col_num
  4156  02A2  3000               	movlw	0
  4157  02A3  00F7               	movwf	Goto_XY_LCD_Disp@col_num+1
  4158  02A4  160A  118A  26AD  120A  118A  	fcall	_Goto_XY_LCD_Disp
  4159                           
  4160                           ;timer13.c: 642: Data_Str_Disp_LCD(red_disp);
  4161  02A9  301F               	movlw	(low ((_red_disp-__stringbase)| (0+32768)))& (0+255)
  4162  02AA  160A  118A  25D5  120A  118A  	fcall	_Data_Str_Disp_LCD
  4163                           
  4164                           ;timer13.c: 643: Goto_XY_LCD_Disp((2u),(3u));
  4165  02AF  3002               	movlw	2
  4166  02B0  00F4               	movwf	Goto_XY_LCD_Disp@line_num
  4167  02B1  3000               	movlw	0
  4168  02B2  00F5               	movwf	Goto_XY_LCD_Disp@line_num+1
  4169  02B3  3003               	movlw	3
  4170  02B4  00F6               	movwf	Goto_XY_LCD_Disp@col_num
  4171  02B5  3000               	movlw	0
  4172  02B6  00F7               	movwf	Goto_XY_LCD_Disp@col_num+1
  4173  02B7  160A  118A  26AD  120A  118A  	fcall	_Goto_XY_LCD_Disp
  4174                           
  4175                           ;timer13.c: 644: Data_Str_Disp_LCD(red_disp);
  4176  02BC  301F               	movlw	(low ((_red_disp-__stringbase)| (0+32768)))& (0+255)
  4177  02BD  160A  118A  25D5  120A  118A  	fcall	_Data_Str_Disp_LCD
  4178                           
  4179                           ;timer13.c: 645: Goto_XY_LCD_Disp((3u),(3u));
  4180  02C2  3003               	movlw	3
  4181  02C3  00F4               	movwf	Goto_XY_LCD_Disp@line_num
  4182  02C4  3000               	movlw	0
  4183  02C5  00F5               	movwf	Goto_XY_LCD_Disp@line_num+1
  4184  02C6  3003               	movlw	3
  4185  02C7  00F6               	movwf	Goto_XY_LCD_Disp@col_num
  4186  02C8  3000               	movlw	0
  4187  02C9  00F7               	movwf	Goto_XY_LCD_Disp@col_num+1
  4188  02CA  160A  118A  26AD  120A  118A  	fcall	_Goto_XY_LCD_Disp
  4189                           
  4190                           ;timer13.c: 646: Data_Str_Disp_LCD(red_disp);
  4191  02CF  301F               	movlw	(low ((_red_disp-__stringbase)| (0+32768)))& (0+255)
  4192  02D0  160A  118A  25D5  120A  118A  	fcall	_Data_Str_Disp_LCD
  4193                           
  4194                           ;timer13.c: 647: Goto_XY_LCD_Disp((4u),(3u));
  4195  02D5  3004               	movlw	4
  4196  02D6  00F4               	movwf	Goto_XY_LCD_Disp@line_num
  4197  02D7  3000               	movlw	0
  4198  02D8  00F5               	movwf	Goto_XY_LCD_Disp@line_num+1
  4199  02D9  3003               	movlw	3
  4200  02DA  00F6               	movwf	Goto_XY_LCD_Disp@col_num
  4201  02DB  3000               	movlw	0
  4202  02DC  00F7               	movwf	Goto_XY_LCD_Disp@col_num+1
  4203  02DD  160A  118A  26AD  120A  118A  	fcall	_Goto_XY_LCD_Disp
  4204                           
  4205                           ;timer13.c: 648: Data_Str_Disp_LCD(green_disp);
  4206  02E2  3016               	movlw	(low ((_green_disp-__stringbase)| (0+32768)))& (0+255)
  4207  02E3  160A  118A  25D5  120A  118A  	fcall	_Data_Str_Disp_LCD
  4208                           
  4209                           ;timer13.c: 649: S_Go_Fsm_Proc();
  4210  02E8  120A  158A  21CD   	fcall	_S_Go_Fsm_Proc
  4211  02EB  0008               	return
  4212  02EC                     __end_of_Startup_S_Go_Fsm_Proc:	
  4213                           
  4214                           	psect	text12
  4215  09CD                     __ptext12:	
  4216 ;; *************** function _S_Go_Fsm_Proc *****************
  4217 ;; Defined at:
  4218 ;;		line 810 in file "timer13.c"
  4219 ;; Parameters:    Size  Location     Type
  4220 ;;		None
  4221 ;; Auto vars:     Size  Location     Type
  4222 ;;		None
  4223 ;; Return value:  Size  Location     Type
  4224 ;;                  1    wreg      void 
  4225 ;; Registers used:
  4226 ;;		wreg, fsr0l, fsr0h, status,2, status,0, pclath, cstack
  4227 ;; Tracked objects:
  4228 ;;		On entry : 0/0
  4229 ;;		On exit  : 0/0
  4230 ;;		Unchanged: 0/0
  4231 ;; Data sizes:     COMMON   BANK0   BANK1   BANK3   BANK2
  4232 ;;      Params:         0       0       0       0       0
  4233 ;;      Locals:         0       0       0       0       0
  4234 ;;      Temps:          0       0       0       0       0
  4235 ;;      Totals:         0       0       0       0       0
  4236 ;;Total ram usage:        0 bytes
  4237 ;; Hardware stack levels used:    1
  4238 ;; Hardware stack levels required when called:    4
  4239 ;; This function calls:
  4240 ;;		_Data_3Digit_Num_Disp_LCD
  4241 ;;		_Goto_XY_LCD_Disp
  4242 ;; This function is called by:
  4243 ;;		_Traffic_Fsm
  4244 ;;		_Startup_S_Go_Fsm_Proc
  4245 ;; This function uses a non-reentrant model
  4246 ;;
  4247                           
  4248                           
  4249                           ;psect for function _S_Go_Fsm_Proc
  4250  09CD                     _S_Go_Fsm_Proc:	
  4251                           
  4252                           ;timer13.c: 812: PORTA = 0x11;
  4253                           
  4254                           ;incstack = 0
  4255                           ; Regs used in _S_Go_Fsm_Proc: [wreg-fsr0h+status,2+status,0+pclath+cstack]
  4256  09CD  3011               	movlw	17
  4257  09CE  1283               	bcf	3,5	;RP0=0, select bank0
  4258  09CF  1303               	bcf	3,6	;RP1=0, select bank0
  4259  09D0  0085               	movwf	5	;volatile
  4260                           
  4261                           ;timer13.c: 813: PORTC = 0x41;
  4262  09D1  3041               	movlw	65
  4263  09D2  0087               	movwf	7	;volatile
  4264                           
  4265                           ;timer13.c: 816: Goto_XY_LCD_Disp((1u), (15U));
  4266  09D3  3001               	movlw	1
  4267  09D4  00F4               	movwf	Goto_XY_LCD_Disp@line_num
  4268  09D5  3000               	movlw	0
  4269  09D6  00F5               	movwf	Goto_XY_LCD_Disp@line_num+1
  4270  09D7  300F               	movlw	15
  4271  09D8  00F6               	movwf	Goto_XY_LCD_Disp@col_num
  4272  09D9  3000               	movlw	0
  4273  09DA  00F7               	movwf	Goto_XY_LCD_Disp@col_num+1
  4274  09DB  160A  118A  26AD  120A  158A  	fcall	_Goto_XY_LCD_Disp
  4275                           
  4276                           ;timer13.c: 817: Data_3Digit_Num_Disp_LCD(cur_e_red_left_secs);
  4277  09E0  1283               	bcf	3,5	;RP0=0, select bank0
  4278  09E1  1303               	bcf	3,6	;RP1=0, select bank0
  4279  09E2  083B               	movf	_cur_e_red_left_secs+1,w
  4280  09E3  00C3               	movwf	Data_3Digit_Num_Disp_LCD@data_int+1
  4281  09E4  083A               	movf	_cur_e_red_left_secs,w
  4282  09E5  00C2               	movwf	Data_3Digit_Num_Disp_LCD@data_int
  4283  09E6  120A  118A  203B  120A  158A  	fcall	_Data_3Digit_Num_Disp_LCD
  4284                           
  4285                           ;timer13.c: 820: Goto_XY_LCD_Disp((2u), (15U));
  4286  09EB  3002               	movlw	2
  4287  09EC  00F4               	movwf	Goto_XY_LCD_Disp@line_num
  4288  09ED  3000               	movlw	0
  4289  09EE  00F5               	movwf	Goto_XY_LCD_Disp@line_num+1
  4290  09EF  300F               	movlw	15
  4291  09F0  00F6               	movwf	Goto_XY_LCD_Disp@col_num
  4292  09F1  3000               	movlw	0
  4293  09F2  00F7               	movwf	Goto_XY_LCD_Disp@col_num+1
  4294  09F3  160A  118A  26AD  120A  158A  	fcall	_Goto_XY_LCD_Disp
  4295                           
  4296                           ;timer13.c: 821: Data_3Digit_Num_Disp_LCD(cur_w_red_left_secs);
  4297  09F8  1283               	bcf	3,5	;RP0=0, select bank0
  4298  09F9  1303               	bcf	3,6	;RP1=0, select bank0
  4299  09FA  0833               	movf	_cur_w_red_left_secs+1,w
  4300  09FB  00C3               	movwf	Data_3Digit_Num_Disp_LCD@data_int+1
  4301  09FC  0832               	movf	_cur_w_red_left_secs,w
  4302  09FD  00C2               	movwf	Data_3Digit_Num_Disp_LCD@data_int
  4303  09FE  120A  118A  203B  120A  158A  	fcall	_Data_3Digit_Num_Disp_LCD
  4304                           
  4305                           ;timer13.c: 824: Goto_XY_LCD_Disp((3u), (15U));
  4306  0A03  3003               	movlw	3
  4307  0A04  00F4               	movwf	Goto_XY_LCD_Disp@line_num
  4308  0A05  3000               	movlw	0
  4309  0A06  00F5               	movwf	Goto_XY_LCD_Disp@line_num+1
  4310  0A07  300F               	movlw	15
  4311  0A08  00F6               	movwf	Goto_XY_LCD_Disp@col_num
  4312  0A09  3000               	movlw	0
  4313  0A0A  00F7               	movwf	Goto_XY_LCD_Disp@col_num+1
  4314  0A0B  160A  118A  26AD  120A  158A  	fcall	_Goto_XY_LCD_Disp
  4315                           
  4316                           ;timer13.c: 825: Data_3Digit_Num_Disp_LCD(cur_n_red_left_secs);
  4317  0A10  1283               	bcf	3,5	;RP0=0, select bank0
  4318  0A11  1303               	bcf	3,6	;RP1=0, select bank0
  4319  0A12  082B               	movf	_cur_n_red_left_secs+1,w
  4320  0A13  00C3               	movwf	Data_3Digit_Num_Disp_LCD@data_int+1
  4321  0A14  082A               	movf	_cur_n_red_left_secs,w
  4322  0A15  00C2               	movwf	Data_3Digit_Num_Disp_LCD@data_int
  4323  0A16  120A  118A  203B  120A  158A  	fcall	_Data_3Digit_Num_Disp_LCD
  4324                           
  4325                           ;timer13.c: 828: Goto_XY_LCD_Disp((4u), (15U));
  4326  0A1B  3004               	movlw	4
  4327  0A1C  00F4               	movwf	Goto_XY_LCD_Disp@line_num
  4328  0A1D  3000               	movlw	0
  4329  0A1E  00F5               	movwf	Goto_XY_LCD_Disp@line_num+1
  4330  0A1F  300F               	movlw	15
  4331  0A20  00F6               	movwf	Goto_XY_LCD_Disp@col_num
  4332  0A21  3000               	movlw	0
  4333  0A22  00F7               	movwf	Goto_XY_LCD_Disp@col_num+1
  4334  0A23  160A  118A  26AD  120A  158A  	fcall	_Goto_XY_LCD_Disp
  4335                           
  4336                           ;timer13.c: 829: Data_3Digit_Num_Disp_LCD(cur_s_green_left_secs);
  4337  0A28  1283               	bcf	3,5	;RP0=0, select bank0
  4338  0A29  1303               	bcf	3,6	;RP1=0, select bank0
  4339  0A2A  0821               	movf	_cur_s_green_left_secs+1,w
  4340  0A2B  00C3               	movwf	Data_3Digit_Num_Disp_LCD@data_int+1
  4341  0A2C  0820               	movf	_cur_s_green_left_secs,w
  4342  0A2D  00C2               	movwf	Data_3Digit_Num_Disp_LCD@data_int
  4343  0A2E  120A  118A  203B   	fcall	_Data_3Digit_Num_Disp_LCD
  4344  0A31  0008               	return
  4345  0A32                     __end_of_S_Go_Fsm_Proc:	
  4346                           
  4347                           	psect	text13
  4348  0D31                     __ptext13:	
  4349 ;; *************** function _Startup_N_Wait_Fsm_Proc *****************
  4350 ;; Defined at:
  4351 ;;		line 596 in file "timer13.c"
  4352 ;; Parameters:    Size  Location     Type
  4353 ;;		None
  4354 ;; Auto vars:     Size  Location     Type
  4355 ;;		None
  4356 ;; Return value:  Size  Location     Type
  4357 ;;                  1    wreg      void 
  4358 ;; Registers used:
  4359 ;;		wreg, fsr0l, fsr0h, status,2, status,0, pclath, cstack
  4360 ;; Tracked objects:
  4361 ;;		On entry : 0/0
  4362 ;;		On exit  : 0/0
  4363 ;;		Unchanged: 0/0
  4364 ;; Data sizes:     COMMON   BANK0   BANK1   BANK3   BANK2
  4365 ;;      Params:         0       0       0       0       0
  4366 ;;      Locals:         0       0       0       0       0
  4367 ;;      Temps:          0       4       0       0       0
  4368 ;;      Totals:         0       4       0       0       0
  4369 ;;Total ram usage:        4 bytes
  4370 ;; Hardware stack levels used:    1
  4371 ;; Hardware stack levels required when called:    5
  4372 ;; This function calls:
  4373 ;;		_Data_Str_Disp_LCD
  4374 ;;		_Goto_XY_LCD_Disp
  4375 ;;		_N_Wait_Fsm_Proc
  4376 ;; This function is called by:
  4377 ;;		_Traffic_Fsm
  4378 ;;		_Traffic_Init
  4379 ;; This function uses a non-reentrant model
  4380 ;;
  4381                           
  4382                           
  4383                           ;psect for function _Startup_N_Wait_Fsm_Proc
  4384  0D31                     _Startup_N_Wait_Fsm_Proc:	
  4385                           
  4386                           ;timer13.c: 598: cur_e_red_left_secs = (5) + s_green_duration + (5);
  4387                           
  4388                           ;incstack = 0
  4389                           ; Regs used in _Startup_N_Wait_Fsm_Proc: [wreg-fsr0h+status,2+status,0+pclath+cstack]
  4390  0D31  1283               	bcf	3,5	;RP0=0, select bank0
  4391  0D32  1303               	bcf	3,6	;RP1=0, select bank0
  4392  0D33  0862               	movf	_s_green_duration,w
  4393  0D34  3E0A               	addlw	10
  4394  0D35  00BA               	movwf	_cur_e_red_left_secs
  4395  0D36  0863               	movf	_s_green_duration+1,w
  4396  0D37  1803               	skipnc
  4397  0D38  3E01               	addlw	1
  4398  0D39  3E00               	addlw	0
  4399  0D3A  00BB               	movwf	_cur_e_red_left_secs+1
  4400                           
  4401                           ;timer13.c: 599: cur_e_yellow_left_secs = (5) + s_green_duration + (5) + e_green_duratio
      +                          n;
  4402  0D3B  0868               	movf	_e_green_duration,w
  4403  0D3C  0762               	addwf	_s_green_duration,w
  4404  0D3D  00DA               	movwf	??_Startup_N_Wait_Fsm_Proc
  4405  0D3E  0869               	movf	_e_green_duration+1,w
  4406  0D3F  1803               	skipnc
  4407  0D40  0A69               	incf	_e_green_duration+1,w
  4408  0D41  0763               	addwf	_s_green_duration+1,w
  4409  0D42  00DB               	movwf	??_Startup_N_Wait_Fsm_Proc+1
  4410  0D43  085A               	movf	??_Startup_N_Wait_Fsm_Proc,w
  4411  0D44  3E0A               	addlw	10
  4412  0D45  00B8               	movwf	_cur_e_yellow_left_secs
  4413  0D46  085B               	movf	??_Startup_N_Wait_Fsm_Proc+1,w
  4414  0D47  1803               	skipnc
  4415  0D48  3E01               	addlw	1
  4416  0D49  3E00               	addlw	0
  4417  0D4A  00B9               	movwf	_cur_e_yellow_left_secs+1
  4418                           
  4419                           ;timer13.c: 600: cur_e_green_left_secs = (5) + s_green_duration + (5);
  4420  0D4B  0862               	movf	_s_green_duration,w
  4421  0D4C  3E0A               	addlw	10
  4422  0D4D  00B6               	movwf	_cur_e_green_left_secs
  4423  0D4E  0863               	movf	_s_green_duration+1,w
  4424  0D4F  1803               	skipnc
  4425  0D50  3E01               	addlw	1
  4426  0D51  3E00               	addlw	0
  4427  0D52  00B7               	movwf	_cur_e_green_left_secs+1
  4428                           
  4429                           ;timer13.c: 601: cur_w_red_left_secs = (5) + s_green_duration + (5) + e_green_duration +
      +                           (5);
  4430  0D53  0868               	movf	_e_green_duration,w
  4431  0D54  0762               	addwf	_s_green_duration,w
  4432  0D55  00DA               	movwf	??_Startup_N_Wait_Fsm_Proc
  4433  0D56  0869               	movf	_e_green_duration+1,w
  4434  0D57  1803               	skipnc
  4435  0D58  0A69               	incf	_e_green_duration+1,w
  4436  0D59  0763               	addwf	_s_green_duration+1,w
  4437  0D5A  00DB               	movwf	??_Startup_N_Wait_Fsm_Proc+1
  4438  0D5B  085A               	movf	??_Startup_N_Wait_Fsm_Proc,w
  4439  0D5C  3E0F               	addlw	15
  4440  0D5D  00B2               	movwf	_cur_w_red_left_secs
  4441  0D5E  085B               	movf	??_Startup_N_Wait_Fsm_Proc+1,w
  4442  0D5F  1803               	skipnc
  4443  0D60  3E01               	addlw	1
  4444  0D61  3E00               	addlw	0
  4445  0D62  00B3               	movwf	_cur_w_red_left_secs+1
  4446                           
  4447                           ;timer13.c: 602: cur_w_yellow_left_secs = (5) + s_green_duration + (5) + e_green_duratio
      +                          n + (5) + w_green_duration;
  4448  0D63  0868               	movf	_e_green_duration,w
  4449  0D64  0762               	addwf	_s_green_duration,w
  4450  0D65  00DA               	movwf	??_Startup_N_Wait_Fsm_Proc
  4451  0D66  0869               	movf	_e_green_duration+1,w
  4452  0D67  1803               	skipnc
  4453  0D68  0A69               	incf	_e_green_duration+1,w
  4454  0D69  0763               	addwf	_s_green_duration+1,w
  4455  0D6A  00DB               	movwf	??_Startup_N_Wait_Fsm_Proc+1
  4456  0D6B  0866               	movf	_w_green_duration,w
  4457  0D6C  075A               	addwf	??_Startup_N_Wait_Fsm_Proc,w
  4458  0D6D  00DC               	movwf	??_Startup_N_Wait_Fsm_Proc+2
  4459  0D6E  0867               	movf	_w_green_duration+1,w
  4460  0D6F  1803               	skipnc
  4461  0D70  0A67               	incf	_w_green_duration+1,w
  4462  0D71  075B               	addwf	??_Startup_N_Wait_Fsm_Proc+1,w
  4463  0D72  00DD               	movwf	??_Startup_N_Wait_Fsm_Proc+3
  4464  0D73  085C               	movf	??_Startup_N_Wait_Fsm_Proc+2,w
  4465  0D74  3E0F               	addlw	15
  4466  0D75  00B0               	movwf	_cur_w_yellow_left_secs
  4467  0D76  085D               	movf	??_Startup_N_Wait_Fsm_Proc+3,w
  4468  0D77  1803               	skipnc
  4469  0D78  3E01               	addlw	1
  4470  0D79  3E00               	addlw	0
  4471  0D7A  00B1               	movwf	_cur_w_yellow_left_secs+1
  4472                           
  4473                           ;timer13.c: 603: cur_w_green_left_secs = (5) + s_green_duration + (5) + e_green_duration
      +                           + (5) ;
  4474  0D7B  0868               	movf	_e_green_duration,w
  4475  0D7C  0762               	addwf	_s_green_duration,w
  4476  0D7D  00DA               	movwf	??_Startup_N_Wait_Fsm_Proc
  4477  0D7E  0869               	movf	_e_green_duration+1,w
  4478  0D7F  1803               	skipnc
  4479  0D80  0A69               	incf	_e_green_duration+1,w
  4480  0D81  0763               	addwf	_s_green_duration+1,w
  4481  0D82  00DB               	movwf	??_Startup_N_Wait_Fsm_Proc+1
  4482  0D83  085A               	movf	??_Startup_N_Wait_Fsm_Proc,w
  4483  0D84  3E0F               	addlw	15
  4484  0D85  00AE               	movwf	_cur_w_green_left_secs
  4485  0D86  085B               	movf	??_Startup_N_Wait_Fsm_Proc+1,w
  4486  0D87  1803               	skipnc
  4487  0D88  3E01               	addlw	1
  4488  0D89  3E00               	addlw	0
  4489  0D8A  00AF               	movwf	_cur_w_green_left_secs+1
  4490                           
  4491                           ;timer13.c: 604: cur_n_red_left_secs = (5) ;
  4492  0D8B  3005               	movlw	5
  4493  0D8C  00AA               	movwf	_cur_n_red_left_secs
  4494  0D8D  3000               	movlw	0
  4495  0D8E  00AB               	movwf	_cur_n_red_left_secs+1
  4496                           
  4497                           ;timer13.c: 605: cur_n_yellow_left_secs = (5);
  4498  0D8F  3005               	movlw	5
  4499  0D90  00A8               	movwf	_cur_n_yellow_left_secs
  4500  0D91  3000               	movlw	0
  4501  0D92  00A9               	movwf	_cur_n_yellow_left_secs+1
  4502                           
  4503                           ;timer13.c: 606: cur_n_green_left_secs = (5) + s_green_duration + (5) + e_green_duration
      +                           + (5) + w_green_duration + (5);
  4504  0D93  0868               	movf	_e_green_duration,w
  4505  0D94  0762               	addwf	_s_green_duration,w
  4506  0D95  00DA               	movwf	??_Startup_N_Wait_Fsm_Proc
  4507  0D96  0869               	movf	_e_green_duration+1,w
  4508  0D97  1803               	skipnc
  4509  0D98  0A69               	incf	_e_green_duration+1,w
  4510  0D99  0763               	addwf	_s_green_duration+1,w
  4511  0D9A  00DB               	movwf	??_Startup_N_Wait_Fsm_Proc+1
  4512  0D9B  0866               	movf	_w_green_duration,w
  4513  0D9C  075A               	addwf	??_Startup_N_Wait_Fsm_Proc,w
  4514  0D9D  00DC               	movwf	??_Startup_N_Wait_Fsm_Proc+2
  4515  0D9E  0867               	movf	_w_green_duration+1,w
  4516  0D9F  1803               	skipnc
  4517  0DA0  0A67               	incf	_w_green_duration+1,w
  4518  0DA1  075B               	addwf	??_Startup_N_Wait_Fsm_Proc+1,w
  4519  0DA2  00DD               	movwf	??_Startup_N_Wait_Fsm_Proc+3
  4520  0DA3  085C               	movf	??_Startup_N_Wait_Fsm_Proc+2,w
  4521  0DA4  3E14               	addlw	20
  4522  0DA5  00A6               	movwf	_cur_n_green_left_secs
  4523  0DA6  085D               	movf	??_Startup_N_Wait_Fsm_Proc+3,w
  4524  0DA7  1803               	skipnc
  4525  0DA8  3E01               	addlw	1
  4526  0DA9  3E00               	addlw	0
  4527  0DAA  00A7               	movwf	_cur_n_green_left_secs+1
  4528                           
  4529                           ;timer13.c: 607: cur_s_red_left_secs = (5);
  4530  0DAB  3005               	movlw	5
  4531  0DAC  00A4               	movwf	_cur_s_red_left_secs
  4532  0DAD  3000               	movlw	0
  4533  0DAE  00A5               	movwf	_cur_s_red_left_secs+1
  4534                           
  4535                           ;timer13.c: 608: cur_s_yellow_left_secs = (5) + s_green_duration;
  4536  0DAF  0862               	movf	_s_green_duration,w
  4537  0DB0  3E05               	addlw	5
  4538  0DB1  00A2               	movwf	_cur_s_yellow_left_secs
  4539  0DB2  0863               	movf	_s_green_duration+1,w
  4540  0DB3  1803               	skipnc
  4541  0DB4  3E01               	addlw	1
  4542  0DB5  3E00               	addlw	0
  4543  0DB6  00A3               	movwf	_cur_s_yellow_left_secs+1
  4544                           
  4545                           ;timer13.c: 609: cur_s_green_left_secs = (5);
  4546  0DB7  3005               	movlw	5
  4547  0DB8  00A0               	movwf	_cur_s_green_left_secs
  4548  0DB9  3000               	movlw	0
  4549  0DBA  00A1               	movwf	_cur_s_green_left_secs+1
  4550                           
  4551                           ;timer13.c: 611: Goto_XY_LCD_Disp((3u), (14U));
  4552  0DBB  3003               	movlw	3
  4553  0DBC  00F4               	movwf	Goto_XY_LCD_Disp@line_num
  4554  0DBD  3000               	movlw	0
  4555  0DBE  00F5               	movwf	Goto_XY_LCD_Disp@line_num+1
  4556  0DBF  300E               	movlw	14
  4557  0DC0  00F6               	movwf	Goto_XY_LCD_Disp@col_num
  4558  0DC1  3000               	movlw	0
  4559  0DC2  00F7               	movwf	Goto_XY_LCD_Disp@col_num+1
  4560  0DC3  160A  118A  26AD  120A  158A  	fcall	_Goto_XY_LCD_Disp
  4561                           
  4562                           ;timer13.c: 612: Data_Str_Disp_LCD(blank_traffic_disp);
  4563  0DC8  302F               	movlw	(low ((_blank_traffic_disp-__stringbase)| (0+32768)))& (0+255)
  4564  0DC9  160A  118A  25D5  120A  158A  	fcall	_Data_Str_Disp_LCD
  4565                           
  4566                           ;timer13.c: 613: Goto_XY_LCD_Disp((1u), (3u));
  4567  0DCE  3001               	movlw	1
  4568  0DCF  00F4               	movwf	Goto_XY_LCD_Disp@line_num
  4569  0DD0  3000               	movlw	0
  4570  0DD1  00F5               	movwf	Goto_XY_LCD_Disp@line_num+1
  4571  0DD2  3003               	movlw	3
  4572  0DD3  00F6               	movwf	Goto_XY_LCD_Disp@col_num
  4573  0DD4  3000               	movlw	0
  4574  0DD5  00F7               	movwf	Goto_XY_LCD_Disp@col_num+1
  4575  0DD6  160A  118A  26AD  120A  158A  	fcall	_Goto_XY_LCD_Disp
  4576                           
  4577                           ;timer13.c: 614: Data_Str_Disp_LCD(red_disp);
  4578  0DDB  301F               	movlw	(low ((_red_disp-__stringbase)| (0+32768)))& (0+255)
  4579  0DDC  160A  118A  25D5  120A  158A  	fcall	_Data_Str_Disp_LCD
  4580                           
  4581                           ;timer13.c: 615: Goto_XY_LCD_Disp((2u),(3u));
  4582  0DE1  3002               	movlw	2
  4583  0DE2  00F4               	movwf	Goto_XY_LCD_Disp@line_num
  4584  0DE3  3000               	movlw	0
  4585  0DE4  00F5               	movwf	Goto_XY_LCD_Disp@line_num+1
  4586  0DE5  3003               	movlw	3
  4587  0DE6  00F6               	movwf	Goto_XY_LCD_Disp@col_num
  4588  0DE7  3000               	movlw	0
  4589  0DE8  00F7               	movwf	Goto_XY_LCD_Disp@col_num+1
  4590  0DE9  160A  118A  26AD  120A  158A  	fcall	_Goto_XY_LCD_Disp
  4591                           
  4592                           ;timer13.c: 616: Data_Str_Disp_LCD(red_disp);
  4593  0DEE  301F               	movlw	(low ((_red_disp-__stringbase)| (0+32768)))& (0+255)
  4594  0DEF  160A  118A  25D5  120A  158A  	fcall	_Data_Str_Disp_LCD
  4595                           
  4596                           ;timer13.c: 617: Goto_XY_LCD_Disp((3u),(3u));
  4597  0DF4  3003               	movlw	3
  4598  0DF5  00F4               	movwf	Goto_XY_LCD_Disp@line_num
  4599  0DF6  3000               	movlw	0
  4600  0DF7  00F5               	movwf	Goto_XY_LCD_Disp@line_num+1
  4601  0DF8  3003               	movlw	3
  4602  0DF9  00F6               	movwf	Goto_XY_LCD_Disp@col_num
  4603  0DFA  3000               	movlw	0
  4604  0DFB  00F7               	movwf	Goto_XY_LCD_Disp@col_num+1
  4605  0DFC  160A  118A  26AD  120A  158A  	fcall	_Goto_XY_LCD_Disp
  4606                           
  4607                           ;timer13.c: 618: Data_Str_Disp_LCD(yellow_disp);
  4608  0E01  300D               	movlw	(low ((_yellow_disp-__stringbase)| (0+32768)))& (0+255)
  4609  0E02  160A  118A  25D5  120A  158A  	fcall	_Data_Str_Disp_LCD
  4610                           
  4611                           ;timer13.c: 619: Goto_XY_LCD_Disp((4u),(3u));
  4612  0E07  3004               	movlw	4
  4613  0E08  00F4               	movwf	Goto_XY_LCD_Disp@line_num
  4614  0E09  3000               	movlw	0
  4615  0E0A  00F5               	movwf	Goto_XY_LCD_Disp@line_num+1
  4616  0E0B  3003               	movlw	3
  4617  0E0C  00F6               	movwf	Goto_XY_LCD_Disp@col_num
  4618  0E0D  3000               	movlw	0
  4619  0E0E  00F7               	movwf	Goto_XY_LCD_Disp@col_num+1
  4620  0E0F  160A  118A  26AD  120A  158A  	fcall	_Goto_XY_LCD_Disp
  4621                           
  4622                           ;timer13.c: 620: Data_Str_Disp_LCD(red_disp);
  4623  0E14  301F               	movlw	(low ((_red_disp-__stringbase)| (0+32768)))& (0+255)
  4624  0E15  160A  118A  25D5  120A  158A  	fcall	_Data_Str_Disp_LCD
  4625                           
  4626                           ;timer13.c: 623: N_Wait_Fsm_Proc();
  4627  0E1A  120A  158A  2168   	fcall	_N_Wait_Fsm_Proc
  4628  0E1D  0008               	return
  4629  0E1E                     __end_of_Startup_N_Wait_Fsm_Proc:	
  4630                           
  4631                           	psect	text14
  4632  0968                     __ptext14:	
  4633 ;; *************** function _N_Wait_Fsm_Proc *****************
  4634 ;; Defined at:
  4635 ;;		line 787 in file "timer13.c"
  4636 ;; Parameters:    Size  Location     Type
  4637 ;;		None
  4638 ;; Auto vars:     Size  Location     Type
  4639 ;;		None
  4640 ;; Return value:  Size  Location     Type
  4641 ;;                  1    wreg      void 
  4642 ;; Registers used:
  4643 ;;		wreg, fsr0l, fsr0h, status,2, status,0, pclath, cstack
  4644 ;; Tracked objects:
  4645 ;;		On entry : 0/0
  4646 ;;		On exit  : 0/0
  4647 ;;		Unchanged: 0/0
  4648 ;; Data sizes:     COMMON   BANK0   BANK1   BANK3   BANK2
  4649 ;;      Params:         0       0       0       0       0
  4650 ;;      Locals:         0       0       0       0       0
  4651 ;;      Temps:          0       0       0       0       0
  4652 ;;      Totals:         0       0       0       0       0
  4653 ;;Total ram usage:        0 bytes
  4654 ;; Hardware stack levels used:    1
  4655 ;; Hardware stack levels required when called:    4
  4656 ;; This function calls:
  4657 ;;		_Data_3Digit_Num_Disp_LCD
  4658 ;;		_Goto_XY_LCD_Disp
  4659 ;; This function is called by:
  4660 ;;		_Traffic_Fsm
  4661 ;;		_Startup_N_Wait_Fsm_Proc
  4662 ;; This function uses a non-reentrant model
  4663 ;;
  4664                           
  4665                           
  4666                           ;psect for function _N_Wait_Fsm_Proc
  4667  0968                     _N_Wait_Fsm_Proc:	
  4668                           
  4669                           ;timer13.c: 789: PORTA = 0x11;
  4670                           
  4671                           ;incstack = 0
  4672                           ; Regs used in _N_Wait_Fsm_Proc: [wreg-fsr0h+status,2+status,0+pclath+cstack]
  4673  0968  3011               	movlw	17
  4674  0969  1283               	bcf	3,5	;RP0=0, select bank0
  4675  096A  1303               	bcf	3,6	;RP1=0, select bank0
  4676  096B  0085               	movwf	5	;volatile
  4677                           
  4678                           ;timer13.c: 790: PORTC = 0x12;
  4679  096C  3012               	movlw	18
  4680  096D  0087               	movwf	7	;volatile
  4681                           
  4682                           ;timer13.c: 793: Goto_XY_LCD_Disp((1u), (15U));
  4683  096E  3001               	movlw	1
  4684  096F  00F4               	movwf	Goto_XY_LCD_Disp@line_num
  4685  0970  3000               	movlw	0
  4686  0971  00F5               	movwf	Goto_XY_LCD_Disp@line_num+1
  4687  0972  300F               	movlw	15
  4688  0973  00F6               	movwf	Goto_XY_LCD_Disp@col_num
  4689  0974  3000               	movlw	0
  4690  0975  00F7               	movwf	Goto_XY_LCD_Disp@col_num+1
  4691  0976  160A  118A  26AD  120A  158A  	fcall	_Goto_XY_LCD_Disp
  4692                           
  4693                           ;timer13.c: 794: Data_3Digit_Num_Disp_LCD(cur_e_red_left_secs);
  4694  097B  1283               	bcf	3,5	;RP0=0, select bank0
  4695  097C  1303               	bcf	3,6	;RP1=0, select bank0
  4696  097D  083B               	movf	_cur_e_red_left_secs+1,w
  4697  097E  00C3               	movwf	Data_3Digit_Num_Disp_LCD@data_int+1
  4698  097F  083A               	movf	_cur_e_red_left_secs,w
  4699  0980  00C2               	movwf	Data_3Digit_Num_Disp_LCD@data_int
  4700  0981  120A  118A  203B  120A  158A  	fcall	_Data_3Digit_Num_Disp_LCD
  4701                           
  4702                           ;timer13.c: 797: Goto_XY_LCD_Disp((2u), (15U));
  4703  0986  3002               	movlw	2
  4704  0987  00F4               	movwf	Goto_XY_LCD_Disp@line_num
  4705  0988  3000               	movlw	0
  4706  0989  00F5               	movwf	Goto_XY_LCD_Disp@line_num+1
  4707  098A  300F               	movlw	15
  4708  098B  00F6               	movwf	Goto_XY_LCD_Disp@col_num
  4709  098C  3000               	movlw	0
  4710  098D  00F7               	movwf	Goto_XY_LCD_Disp@col_num+1
  4711  098E  160A  118A  26AD  120A  158A  	fcall	_Goto_XY_LCD_Disp
  4712                           
  4713                           ;timer13.c: 798: Data_3Digit_Num_Disp_LCD(cur_w_red_left_secs);
  4714  0993  1283               	bcf	3,5	;RP0=0, select bank0
  4715  0994  1303               	bcf	3,6	;RP1=0, select bank0
  4716  0995  0833               	movf	_cur_w_red_left_secs+1,w
  4717  0996  00C3               	movwf	Data_3Digit_Num_Disp_LCD@data_int+1
  4718  0997  0832               	movf	_cur_w_red_left_secs,w
  4719  0998  00C2               	movwf	Data_3Digit_Num_Disp_LCD@data_int
  4720  0999  120A  118A  203B  120A  158A  	fcall	_Data_3Digit_Num_Disp_LCD
  4721                           
  4722                           ;timer13.c: 801: Goto_XY_LCD_Disp((3u), (15U));
  4723  099E  3003               	movlw	3
  4724  099F  00F4               	movwf	Goto_XY_LCD_Disp@line_num
  4725  09A0  3000               	movlw	0
  4726  09A1  00F5               	movwf	Goto_XY_LCD_Disp@line_num+1
  4727  09A2  300F               	movlw	15
  4728  09A3  00F6               	movwf	Goto_XY_LCD_Disp@col_num
  4729  09A4  3000               	movlw	0
  4730  09A5  00F7               	movwf	Goto_XY_LCD_Disp@col_num+1
  4731  09A6  160A  118A  26AD  120A  158A  	fcall	_Goto_XY_LCD_Disp
  4732                           
  4733                           ;timer13.c: 802: Data_3Digit_Num_Disp_LCD(cur_n_yellow_left_secs);
  4734  09AB  1283               	bcf	3,5	;RP0=0, select bank0
  4735  09AC  1303               	bcf	3,6	;RP1=0, select bank0
  4736  09AD  0829               	movf	_cur_n_yellow_left_secs+1,w
  4737  09AE  00C3               	movwf	Data_3Digit_Num_Disp_LCD@data_int+1
  4738  09AF  0828               	movf	_cur_n_yellow_left_secs,w
  4739  09B0  00C2               	movwf	Data_3Digit_Num_Disp_LCD@data_int
  4740  09B1  120A  118A  203B  120A  158A  	fcall	_Data_3Digit_Num_Disp_LCD
  4741                           
  4742                           ;timer13.c: 805: Goto_XY_LCD_Disp((4u), (15U));
  4743  09B6  3004               	movlw	4
  4744  09B7  00F4               	movwf	Goto_XY_LCD_Disp@line_num
  4745  09B8  3000               	movlw	0
  4746  09B9  00F5               	movwf	Goto_XY_LCD_Disp@line_num+1
  4747  09BA  300F               	movlw	15
  4748  09BB  00F6               	movwf	Goto_XY_LCD_Disp@col_num
  4749  09BC  3000               	movlw	0
  4750  09BD  00F7               	movwf	Goto_XY_LCD_Disp@col_num+1
  4751  09BE  160A  118A  26AD  120A  158A  	fcall	_Goto_XY_LCD_Disp
  4752                           
  4753                           ;timer13.c: 806: Data_3Digit_Num_Disp_LCD(cur_s_red_left_secs);
  4754  09C3  1283               	bcf	3,5	;RP0=0, select bank0
  4755  09C4  1303               	bcf	3,6	;RP1=0, select bank0
  4756  09C5  0825               	movf	_cur_s_red_left_secs+1,w
  4757  09C6  00C3               	movwf	Data_3Digit_Num_Disp_LCD@data_int+1
  4758  09C7  0824               	movf	_cur_s_red_left_secs,w
  4759  09C8  00C2               	movwf	Data_3Digit_Num_Disp_LCD@data_int
  4760  09C9  120A  118A  203B   	fcall	_Data_3Digit_Num_Disp_LCD
  4761  09CC  0008               	return
  4762  09CD                     __end_of_N_Wait_Fsm_Proc:	
  4763                           
  4764                           	psect	text15
  4765  03F6                     __ptext15:	
  4766 ;; *************** function _Startup_N_Go_Fsm_Proc *****************
  4767 ;; Defined at:
  4768 ;;		line 571 in file "timer13.c"
  4769 ;; Parameters:    Size  Location     Type
  4770 ;;		None
  4771 ;; Auto vars:     Size  Location     Type
  4772 ;;		None
  4773 ;; Return value:  Size  Location     Type
  4774 ;;                  1    wreg      void 
  4775 ;; Registers used:
  4776 ;;		wreg, fsr0l, fsr0h, status,2, status,0, pclath, cstack
  4777 ;; Tracked objects:
  4778 ;;		On entry : 0/0
  4779 ;;		On exit  : 0/0
  4780 ;;		Unchanged: 0/0
  4781 ;; Data sizes:     COMMON   BANK0   BANK1   BANK3   BANK2
  4782 ;;      Params:         0       0       0       0       0
  4783 ;;      Locals:         0       0       0       0       0
  4784 ;;      Temps:          0       6       0       0       0
  4785 ;;      Totals:         0       6       0       0       0
  4786 ;;Total ram usage:        6 bytes
  4787 ;; Hardware stack levels used:    1
  4788 ;; Hardware stack levels required when called:    5
  4789 ;; This function calls:
  4790 ;;		_Data_Str_Disp_LCD
  4791 ;;		_Goto_XY_LCD_Disp
  4792 ;;		_N_Go_Fsm_Proc
  4793 ;; This function is called by:
  4794 ;;		_Traffic_Fsm
  4795 ;;		_Traffic_Init
  4796 ;; This function uses a non-reentrant model
  4797 ;;
  4798                           
  4799                           
  4800                           ;psect for function _Startup_N_Go_Fsm_Proc
  4801  03F6                     _Startup_N_Go_Fsm_Proc:	
  4802                           
  4803                           ;timer13.c: 573: cur_e_red_left_secs = n_green_duration + (5) + s_green_duration + (5);
  4804                           
  4805                           ;incstack = 0
  4806                           ; Regs used in _Startup_N_Go_Fsm_Proc: [wreg-fsr0h+status,2+status,0+pclath+cstack]
  4807  03F6  1283               	bcf	3,5	;RP0=0, select bank0
  4808  03F7  1303               	bcf	3,6	;RP1=0, select bank0
  4809  03F8  0862               	movf	_s_green_duration,w
  4810  03F9  0764               	addwf	_n_green_duration,w
  4811  03FA  00DA               	movwf	??_Startup_N_Go_Fsm_Proc
  4812  03FB  0863               	movf	_s_green_duration+1,w
  4813  03FC  1803               	skipnc
  4814  03FD  0A63               	incf	_s_green_duration+1,w
  4815  03FE  0765               	addwf	_n_green_duration+1,w
  4816  03FF  00DB               	movwf	??_Startup_N_Go_Fsm_Proc+1
  4817  0400  085A               	movf	??_Startup_N_Go_Fsm_Proc,w
  4818  0401  3E0A               	addlw	10
  4819  0402  00BA               	movwf	_cur_e_red_left_secs
  4820  0403  085B               	movf	??_Startup_N_Go_Fsm_Proc+1,w
  4821  0404  1803               	skipnc
  4822  0405  3E01               	addlw	1
  4823  0406  3E00               	addlw	0
  4824  0407  00BB               	movwf	_cur_e_red_left_secs+1
  4825                           
  4826                           ;timer13.c: 574: cur_e_yellow_left_secs = n_green_duration + (5) + s_green_duration + (5
      +                          ) + e_green_duration;
  4827  0408  0862               	movf	_s_green_duration,w
  4828  0409  0764               	addwf	_n_green_duration,w
  4829  040A  00DA               	movwf	??_Startup_N_Go_Fsm_Proc
  4830  040B  0863               	movf	_s_green_duration+1,w
  4831  040C  1803               	skipnc
  4832  040D  0A63               	incf	_s_green_duration+1,w
  4833  040E  0765               	addwf	_n_green_duration+1,w
  4834  040F  00DB               	movwf	??_Startup_N_Go_Fsm_Proc+1
  4835  0410  0868               	movf	_e_green_duration,w
  4836  0411  075A               	addwf	??_Startup_N_Go_Fsm_Proc,w
  4837  0412  00DC               	movwf	??_Startup_N_Go_Fsm_Proc+2
  4838  0413  0869               	movf	_e_green_duration+1,w
  4839  0414  1803               	skipnc
  4840  0415  0A69               	incf	_e_green_duration+1,w
  4841  0416  075B               	addwf	??_Startup_N_Go_Fsm_Proc+1,w
  4842  0417  00DD               	movwf	??_Startup_N_Go_Fsm_Proc+3
  4843  0418  085C               	movf	??_Startup_N_Go_Fsm_Proc+2,w
  4844  0419  3E0A               	addlw	10
  4845  041A  00B8               	movwf	_cur_e_yellow_left_secs
  4846  041B  085D               	movf	??_Startup_N_Go_Fsm_Proc+3,w
  4847  041C  1803               	skipnc
  4848  041D  3E01               	addlw	1
  4849  041E  3E00               	addlw	0
  4850  041F  00B9               	movwf	_cur_e_yellow_left_secs+1
  4851                           
  4852                           ;timer13.c: 575: cur_e_green_left_secs = n_green_duration + (5) + s_green_duration + (5)
      +                          ;
  4853  0420  0862               	movf	_s_green_duration,w
  4854  0421  0764               	addwf	_n_green_duration,w
  4855  0422  00DA               	movwf	??_Startup_N_Go_Fsm_Proc
  4856  0423  0863               	movf	_s_green_duration+1,w
  4857  0424  1803               	skipnc
  4858  0425  0A63               	incf	_s_green_duration+1,w
  4859  0426  0765               	addwf	_n_green_duration+1,w
  4860  0427  00DB               	movwf	??_Startup_N_Go_Fsm_Proc+1
  4861  0428  085A               	movf	??_Startup_N_Go_Fsm_Proc,w
  4862  0429  3E0A               	addlw	10
  4863  042A  00B6               	movwf	_cur_e_green_left_secs
  4864  042B  085B               	movf	??_Startup_N_Go_Fsm_Proc+1,w
  4865  042C  1803               	skipnc
  4866  042D  3E01               	addlw	1
  4867  042E  3E00               	addlw	0
  4868  042F  00B7               	movwf	_cur_e_green_left_secs+1
  4869                           
  4870                           ;timer13.c: 576: cur_w_red_left_secs = n_green_duration + (5) + s_green_duration + (5) +
      +                           e_green_duration + (5);
  4871  0430  0862               	movf	_s_green_duration,w
  4872  0431  0764               	addwf	_n_green_duration,w
  4873  0432  00DA               	movwf	??_Startup_N_Go_Fsm_Proc
  4874  0433  0863               	movf	_s_green_duration+1,w
  4875  0434  1803               	skipnc
  4876  0435  0A63               	incf	_s_green_duration+1,w
  4877  0436  0765               	addwf	_n_green_duration+1,w
  4878  0437  00DB               	movwf	??_Startup_N_Go_Fsm_Proc+1
  4879  0438  0868               	movf	_e_green_duration,w
  4880  0439  075A               	addwf	??_Startup_N_Go_Fsm_Proc,w
  4881  043A  00DC               	movwf	??_Startup_N_Go_Fsm_Proc+2
  4882  043B  0869               	movf	_e_green_duration+1,w
  4883  043C  1803               	skipnc
  4884  043D  0A69               	incf	_e_green_duration+1,w
  4885  043E  075B               	addwf	??_Startup_N_Go_Fsm_Proc+1,w
  4886  043F  00DD               	movwf	??_Startup_N_Go_Fsm_Proc+3
  4887  0440  085C               	movf	??_Startup_N_Go_Fsm_Proc+2,w
  4888  0441  3E0F               	addlw	15
  4889  0442  00B2               	movwf	_cur_w_red_left_secs
  4890  0443  085D               	movf	??_Startup_N_Go_Fsm_Proc+3,w
  4891  0444  1803               	skipnc
  4892  0445  3E01               	addlw	1
  4893  0446  3E00               	addlw	0
  4894  0447  00B3               	movwf	_cur_w_red_left_secs+1
  4895                           
  4896                           ;timer13.c: 577: cur_w_yellow_left_secs = n_green_duration + (5) + s_green_duration + (5
      +                          ) + e_green_duration + (5) + w_green_duration;
  4897  0448  0862               	movf	_s_green_duration,w
  4898  0449  0764               	addwf	_n_green_duration,w
  4899  044A  00DA               	movwf	??_Startup_N_Go_Fsm_Proc
  4900  044B  0863               	movf	_s_green_duration+1,w
  4901  044C  1803               	skipnc
  4902  044D  0A63               	incf	_s_green_duration+1,w
  4903  044E  0765               	addwf	_n_green_duration+1,w
  4904  044F  00DB               	movwf	??_Startup_N_Go_Fsm_Proc+1
  4905  0450  0868               	movf	_e_green_duration,w
  4906  0451  075A               	addwf	??_Startup_N_Go_Fsm_Proc,w
  4907  0452  00DC               	movwf	??_Startup_N_Go_Fsm_Proc+2
  4908  0453  0869               	movf	_e_green_duration+1,w
  4909  0454  1803               	skipnc
  4910  0455  0A69               	incf	_e_green_duration+1,w
  4911  0456  075B               	addwf	??_Startup_N_Go_Fsm_Proc+1,w
  4912  0457  00DD               	movwf	??_Startup_N_Go_Fsm_Proc+3
  4913  0458  0866               	movf	_w_green_duration,w
  4914  0459  075C               	addwf	??_Startup_N_Go_Fsm_Proc+2,w
  4915  045A  00DE               	movwf	??_Startup_N_Go_Fsm_Proc+4
  4916  045B  0867               	movf	_w_green_duration+1,w
  4917  045C  1803               	skipnc
  4918  045D  0A67               	incf	_w_green_duration+1,w
  4919  045E  075D               	addwf	??_Startup_N_Go_Fsm_Proc+3,w
  4920  045F  00DF               	movwf	??_Startup_N_Go_Fsm_Proc+5
  4921  0460  085E               	movf	??_Startup_N_Go_Fsm_Proc+4,w
  4922  0461  3E0F               	addlw	15
  4923  0462  00B0               	movwf	_cur_w_yellow_left_secs
  4924  0463  085F               	movf	??_Startup_N_Go_Fsm_Proc+5,w
  4925  0464  1803               	skipnc
  4926  0465  3E01               	addlw	1
  4927  0466  3E00               	addlw	0
  4928  0467  00B1               	movwf	_cur_w_yellow_left_secs+1
  4929                           
  4930                           ;timer13.c: 578: cur_w_green_left_secs = n_green_duration + (5) + s_green_duration + (5)
      +                           + e_green_duration + (5) + w_green_duration;
  4931  0468  0862               	movf	_s_green_duration,w
  4932  0469  0764               	addwf	_n_green_duration,w
  4933  046A  00DA               	movwf	??_Startup_N_Go_Fsm_Proc
  4934  046B  0863               	movf	_s_green_duration+1,w
  4935  046C  1803               	skipnc
  4936  046D  0A63               	incf	_s_green_duration+1,w
  4937  046E  0765               	addwf	_n_green_duration+1,w
  4938  046F  00DB               	movwf	??_Startup_N_Go_Fsm_Proc+1
  4939  0470  0868               	movf	_e_green_duration,w
  4940  0471  075A               	addwf	??_Startup_N_Go_Fsm_Proc,w
  4941  0472  00DC               	movwf	??_Startup_N_Go_Fsm_Proc+2
  4942  0473  0869               	movf	_e_green_duration+1,w
  4943  0474  1803               	skipnc
  4944  0475  0A69               	incf	_e_green_duration+1,w
  4945  0476  075B               	addwf	??_Startup_N_Go_Fsm_Proc+1,w
  4946  0477  00DD               	movwf	??_Startup_N_Go_Fsm_Proc+3
  4947  0478  0866               	movf	_w_green_duration,w
  4948  0479  075C               	addwf	??_Startup_N_Go_Fsm_Proc+2,w
  4949  047A  00DE               	movwf	??_Startup_N_Go_Fsm_Proc+4
  4950  047B  0867               	movf	_w_green_duration+1,w
  4951  047C  1803               	skipnc
  4952  047D  0A67               	incf	_w_green_duration+1,w
  4953  047E  075D               	addwf	??_Startup_N_Go_Fsm_Proc+3,w
  4954  047F  00DF               	movwf	??_Startup_N_Go_Fsm_Proc+5
  4955  0480  085E               	movf	??_Startup_N_Go_Fsm_Proc+4,w
  4956  0481  3E0F               	addlw	15
  4957  0482  00AE               	movwf	_cur_w_green_left_secs
  4958  0483  085F               	movf	??_Startup_N_Go_Fsm_Proc+5,w
  4959  0484  1803               	skipnc
  4960  0485  3E01               	addlw	1
  4961  0486  3E00               	addlw	0
  4962  0487  00AF               	movwf	_cur_w_green_left_secs+1
  4963                           
  4964                           ;timer13.c: 579: cur_n_red_left_secs = n_green_duration + (5) ;
  4965  0488  0864               	movf	_n_green_duration,w
  4966  0489  3E05               	addlw	5
  4967  048A  00AA               	movwf	_cur_n_red_left_secs
  4968  048B  0865               	movf	_n_green_duration+1,w
  4969  048C  1803               	skipnc
  4970  048D  3E01               	addlw	1
  4971  048E  3E00               	addlw	0
  4972  048F  00AB               	movwf	_cur_n_red_left_secs+1
  4973                           
  4974                           ;timer13.c: 580: cur_n_yellow_left_secs = n_green_duration;
  4975  0490  0865               	movf	_n_green_duration+1,w
  4976  0491  00A9               	movwf	_cur_n_yellow_left_secs+1
  4977  0492  0864               	movf	_n_green_duration,w
  4978  0493  00A8               	movwf	_cur_n_yellow_left_secs
  4979                           
  4980                           ;timer13.c: 581: cur_n_green_left_secs = n_green_duration ;
  4981  0494  0865               	movf	_n_green_duration+1,w
  4982  0495  00A7               	movwf	_cur_n_green_left_secs+1
  4983  0496  0864               	movf	_n_green_duration,w
  4984  0497  00A6               	movwf	_cur_n_green_left_secs
  4985                           
  4986                           ;timer13.c: 582: cur_s_red_left_secs = n_green_duration + (5);
  4987  0498  0864               	movf	_n_green_duration,w
  4988  0499  3E05               	addlw	5
  4989  049A  00A4               	movwf	_cur_s_red_left_secs
  4990  049B  0865               	movf	_n_green_duration+1,w
  4991  049C  1803               	skipnc
  4992  049D  3E01               	addlw	1
  4993  049E  3E00               	addlw	0
  4994  049F  00A5               	movwf	_cur_s_red_left_secs+1
  4995                           
  4996                           ;timer13.c: 583: cur_s_yellow_left_secs = n_green_duration + (5) + s_green_duration;
  4997  04A0  0862               	movf	_s_green_duration,w
  4998  04A1  0764               	addwf	_n_green_duration,w
  4999  04A2  00DA               	movwf	??_Startup_N_Go_Fsm_Proc
  5000  04A3  0863               	movf	_s_green_duration+1,w
  5001  04A4  1803               	skipnc
  5002  04A5  0A63               	incf	_s_green_duration+1,w
  5003  04A6  0765               	addwf	_n_green_duration+1,w
  5004  04A7  00DB               	movwf	??_Startup_N_Go_Fsm_Proc+1
  5005  04A8  085A               	movf	??_Startup_N_Go_Fsm_Proc,w
  5006  04A9  3E05               	addlw	5
  5007  04AA  00A2               	movwf	_cur_s_yellow_left_secs
  5008  04AB  085B               	movf	??_Startup_N_Go_Fsm_Proc+1,w
  5009  04AC  1803               	skipnc
  5010  04AD  3E01               	addlw	1
  5011  04AE  3E00               	addlw	0
  5012  04AF  00A3               	movwf	_cur_s_yellow_left_secs+1
  5013                           
  5014                           ;timer13.c: 584: cur_s_green_left_secs = n_green_duration + (5);
  5015  04B0  0864               	movf	_n_green_duration,w
  5016  04B1  3E05               	addlw	5
  5017  04B2  00A0               	movwf	_cur_s_green_left_secs
  5018  04B3  0865               	movf	_n_green_duration+1,w
  5019  04B4  1803               	skipnc
  5020  04B5  3E01               	addlw	1
  5021  04B6  3E00               	addlw	0
  5022  04B7  00A1               	movwf	_cur_s_green_left_secs+1
  5023                           
  5024                           ;timer13.c: 586: Goto_XY_LCD_Disp((1u), (3u));
  5025  04B8  3001               	movlw	1
  5026  04B9  00F4               	movwf	Goto_XY_LCD_Disp@line_num
  5027  04BA  3000               	movlw	0
  5028  04BB  00F5               	movwf	Goto_XY_LCD_Disp@line_num+1
  5029  04BC  3003               	movlw	3
  5030  04BD  00F6               	movwf	Goto_XY_LCD_Disp@col_num
  5031  04BE  3000               	movlw	0
  5032  04BF  00F7               	movwf	Goto_XY_LCD_Disp@col_num+1
  5033  04C0  160A  118A  26AD  120A  118A  	fcall	_Goto_XY_LCD_Disp
  5034                           
  5035                           ;timer13.c: 587: Data_Str_Disp_LCD(red_disp);
  5036  04C5  301F               	movlw	(low ((_red_disp-__stringbase)| (0+32768)))& (0+255)
  5037  04C6  160A  118A  25D5  120A  118A  	fcall	_Data_Str_Disp_LCD
  5038                           
  5039                           ;timer13.c: 588: Goto_XY_LCD_Disp((2u),(3u));
  5040  04CB  3002               	movlw	2
  5041  04CC  00F4               	movwf	Goto_XY_LCD_Disp@line_num
  5042  04CD  3000               	movlw	0
  5043  04CE  00F5               	movwf	Goto_XY_LCD_Disp@line_num+1
  5044  04CF  3003               	movlw	3
  5045  04D0  00F6               	movwf	Goto_XY_LCD_Disp@col_num
  5046  04D1  3000               	movlw	0
  5047  04D2  00F7               	movwf	Goto_XY_LCD_Disp@col_num+1
  5048  04D3  160A  118A  26AD  120A  118A  	fcall	_Goto_XY_LCD_Disp
  5049                           
  5050                           ;timer13.c: 589: Data_Str_Disp_LCD(red_disp);
  5051  04D8  301F               	movlw	(low ((_red_disp-__stringbase)| (0+32768)))& (0+255)
  5052  04D9  160A  118A  25D5  120A  118A  	fcall	_Data_Str_Disp_LCD
  5053                           
  5054                           ;timer13.c: 590: Goto_XY_LCD_Disp((3u),(3u));
  5055  04DE  3003               	movlw	3
  5056  04DF  00F4               	movwf	Goto_XY_LCD_Disp@line_num
  5057  04E0  3000               	movlw	0
  5058  04E1  00F5               	movwf	Goto_XY_LCD_Disp@line_num+1
  5059  04E2  3003               	movlw	3
  5060  04E3  00F6               	movwf	Goto_XY_LCD_Disp@col_num
  5061  04E4  3000               	movlw	0
  5062  04E5  00F7               	movwf	Goto_XY_LCD_Disp@col_num+1
  5063  04E6  160A  118A  26AD  120A  118A  	fcall	_Goto_XY_LCD_Disp
  5064                           
  5065                           ;timer13.c: 591: Data_Str_Disp_LCD(green_disp);
  5066  04EB  3016               	movlw	(low ((_green_disp-__stringbase)| (0+32768)))& (0+255)
  5067  04EC  160A  118A  25D5  120A  118A  	fcall	_Data_Str_Disp_LCD
  5068                           
  5069                           ;timer13.c: 592: Goto_XY_LCD_Disp((4u),(3u));
  5070  04F1  3004               	movlw	4
  5071  04F2  00F4               	movwf	Goto_XY_LCD_Disp@line_num
  5072  04F3  3000               	movlw	0
  5073  04F4  00F5               	movwf	Goto_XY_LCD_Disp@line_num+1
  5074  04F5  3003               	movlw	3
  5075  04F6  00F6               	movwf	Goto_XY_LCD_Disp@col_num
  5076  04F7  3000               	movlw	0
  5077  04F8  00F7               	movwf	Goto_XY_LCD_Disp@col_num+1
  5078  04F9  160A  118A  26AD  120A  118A  	fcall	_Goto_XY_LCD_Disp
  5079                           
  5080                           ;timer13.c: 593: Data_Str_Disp_LCD(red_disp);
  5081  04FE  301F               	movlw	(low ((_red_disp-__stringbase)| (0+32768)))& (0+255)
  5082  04FF  160A  118A  25D5  120A  118A  	fcall	_Data_Str_Disp_LCD
  5083                           
  5084                           ;timer13.c: 594: N_Go_Fsm_Proc();
  5085  0504  120A  158A  2103   	fcall	_N_Go_Fsm_Proc
  5086  0507  0008               	return
  5087  0508                     __end_of_Startup_N_Go_Fsm_Proc:	
  5088                           
  5089                           	psect	text16
  5090  0903                     __ptext16:	
  5091 ;; *************** function _N_Go_Fsm_Proc *****************
  5092 ;; Defined at:
  5093 ;;		line 764 in file "timer13.c"
  5094 ;; Parameters:    Size  Location     Type
  5095 ;;		None
  5096 ;; Auto vars:     Size  Location     Type
  5097 ;;		None
  5098 ;; Return value:  Size  Location     Type
  5099 ;;                  1    wreg      void 
  5100 ;; Registers used:
  5101 ;;		wreg, fsr0l, fsr0h, status,2, status,0, pclath, cstack
  5102 ;; Tracked objects:
  5103 ;;		On entry : 0/0
  5104 ;;		On exit  : 0/0
  5105 ;;		Unchanged: 0/0
  5106 ;; Data sizes:     COMMON   BANK0   BANK1   BANK3   BANK2
  5107 ;;      Params:         0       0       0       0       0
  5108 ;;      Locals:         0       0       0       0       0
  5109 ;;      Temps:          0       0       0       0       0
  5110 ;;      Totals:         0       0       0       0       0
  5111 ;;Total ram usage:        0 bytes
  5112 ;; Hardware stack levels used:    1
  5113 ;; Hardware stack levels required when called:    4
  5114 ;; This function calls:
  5115 ;;		_Data_3Digit_Num_Disp_LCD
  5116 ;;		_Goto_XY_LCD_Disp
  5117 ;; This function is called by:
  5118 ;;		_Traffic_Fsm
  5119 ;;		_Startup_N_Go_Fsm_Proc
  5120 ;; This function uses a non-reentrant model
  5121 ;;
  5122                           
  5123                           
  5124                           ;psect for function _N_Go_Fsm_Proc
  5125  0903                     _N_Go_Fsm_Proc:	
  5126                           
  5127                           ;timer13.c: 766: PORTA = 0x11;
  5128                           
  5129                           ;incstack = 0
  5130                           ; Regs used in _N_Go_Fsm_Proc: [wreg-fsr0h+status,2+status,0+pclath+cstack]
  5131  0903  3011               	movlw	17
  5132  0904  1283               	bcf	3,5	;RP0=0, select bank0
  5133  0905  1303               	bcf	3,6	;RP1=0, select bank0
  5134  0906  0085               	movwf	5	;volatile
  5135                           
  5136                           ;timer13.c: 767: PORTC = 0x14;
  5137  0907  3014               	movlw	20
  5138  0908  0087               	movwf	7	;volatile
  5139                           
  5140                           ;timer13.c: 770: Goto_XY_LCD_Disp((1u), (15U));
  5141  0909  3001               	movlw	1
  5142  090A  00F4               	movwf	Goto_XY_LCD_Disp@line_num
  5143  090B  3000               	movlw	0
  5144  090C  00F5               	movwf	Goto_XY_LCD_Disp@line_num+1
  5145  090D  300F               	movlw	15
  5146  090E  00F6               	movwf	Goto_XY_LCD_Disp@col_num
  5147  090F  3000               	movlw	0
  5148  0910  00F7               	movwf	Goto_XY_LCD_Disp@col_num+1
  5149  0911  160A  118A  26AD  120A  158A  	fcall	_Goto_XY_LCD_Disp
  5150                           
  5151                           ;timer13.c: 771: Data_3Digit_Num_Disp_LCD(cur_e_red_left_secs);
  5152  0916  1283               	bcf	3,5	;RP0=0, select bank0
  5153  0917  1303               	bcf	3,6	;RP1=0, select bank0
  5154  0918  083B               	movf	_cur_e_red_left_secs+1,w
  5155  0919  00C3               	movwf	Data_3Digit_Num_Disp_LCD@data_int+1
  5156  091A  083A               	movf	_cur_e_red_left_secs,w
  5157  091B  00C2               	movwf	Data_3Digit_Num_Disp_LCD@data_int
  5158  091C  120A  118A  203B  120A  158A  	fcall	_Data_3Digit_Num_Disp_LCD
  5159                           
  5160                           ;timer13.c: 774: Goto_XY_LCD_Disp((2u), (15U));
  5161  0921  3002               	movlw	2
  5162  0922  00F4               	movwf	Goto_XY_LCD_Disp@line_num
  5163  0923  3000               	movlw	0
  5164  0924  00F5               	movwf	Goto_XY_LCD_Disp@line_num+1
  5165  0925  300F               	movlw	15
  5166  0926  00F6               	movwf	Goto_XY_LCD_Disp@col_num
  5167  0927  3000               	movlw	0
  5168  0928  00F7               	movwf	Goto_XY_LCD_Disp@col_num+1
  5169  0929  160A  118A  26AD  120A  158A  	fcall	_Goto_XY_LCD_Disp
  5170                           
  5171                           ;timer13.c: 775: Data_3Digit_Num_Disp_LCD(cur_w_red_left_secs);
  5172  092E  1283               	bcf	3,5	;RP0=0, select bank0
  5173  092F  1303               	bcf	3,6	;RP1=0, select bank0
  5174  0930  0833               	movf	_cur_w_red_left_secs+1,w
  5175  0931  00C3               	movwf	Data_3Digit_Num_Disp_LCD@data_int+1
  5176  0932  0832               	movf	_cur_w_red_left_secs,w
  5177  0933  00C2               	movwf	Data_3Digit_Num_Disp_LCD@data_int
  5178  0934  120A  118A  203B  120A  158A  	fcall	_Data_3Digit_Num_Disp_LCD
  5179                           
  5180                           ;timer13.c: 778: Goto_XY_LCD_Disp((3u), (15U));
  5181  0939  3003               	movlw	3
  5182  093A  00F4               	movwf	Goto_XY_LCD_Disp@line_num
  5183  093B  3000               	movlw	0
  5184  093C  00F5               	movwf	Goto_XY_LCD_Disp@line_num+1
  5185  093D  300F               	movlw	15
  5186  093E  00F6               	movwf	Goto_XY_LCD_Disp@col_num
  5187  093F  3000               	movlw	0
  5188  0940  00F7               	movwf	Goto_XY_LCD_Disp@col_num+1
  5189  0941  160A  118A  26AD  120A  158A  	fcall	_Goto_XY_LCD_Disp
  5190                           
  5191                           ;timer13.c: 779: Data_3Digit_Num_Disp_LCD(cur_n_green_left_secs);
  5192  0946  1283               	bcf	3,5	;RP0=0, select bank0
  5193  0947  1303               	bcf	3,6	;RP1=0, select bank0
  5194  0948  0827               	movf	_cur_n_green_left_secs+1,w
  5195  0949  00C3               	movwf	Data_3Digit_Num_Disp_LCD@data_int+1
  5196  094A  0826               	movf	_cur_n_green_left_secs,w
  5197  094B  00C2               	movwf	Data_3Digit_Num_Disp_LCD@data_int
  5198  094C  120A  118A  203B  120A  158A  	fcall	_Data_3Digit_Num_Disp_LCD
  5199                           
  5200                           ;timer13.c: 782: Goto_XY_LCD_Disp((4u), (15U));
  5201  0951  3004               	movlw	4
  5202  0952  00F4               	movwf	Goto_XY_LCD_Disp@line_num
  5203  0953  3000               	movlw	0
  5204  0954  00F5               	movwf	Goto_XY_LCD_Disp@line_num+1
  5205  0955  300F               	movlw	15
  5206  0956  00F6               	movwf	Goto_XY_LCD_Disp@col_num
  5207  0957  3000               	movlw	0
  5208  0958  00F7               	movwf	Goto_XY_LCD_Disp@col_num+1
  5209  0959  160A  118A  26AD  120A  158A  	fcall	_Goto_XY_LCD_Disp
  5210                           
  5211                           ;timer13.c: 783: Data_3Digit_Num_Disp_LCD(cur_s_red_left_secs);
  5212  095E  1283               	bcf	3,5	;RP0=0, select bank0
  5213  095F  1303               	bcf	3,6	;RP1=0, select bank0
  5214  0960  0825               	movf	_cur_s_red_left_secs+1,w
  5215  0961  00C3               	movwf	Data_3Digit_Num_Disp_LCD@data_int+1
  5216  0962  0824               	movf	_cur_s_red_left_secs,w
  5217  0963  00C2               	movwf	Data_3Digit_Num_Disp_LCD@data_int
  5218  0964  120A  118A  203B   	fcall	_Data_3Digit_Num_Disp_LCD
  5219  0967  0008               	return
  5220  0968                     __end_of_N_Go_Fsm_Proc:	
  5221                           
  5222                           	psect	text17
  5223  0C44                     __ptext17:	
  5224 ;; *************** function _Startup_E_Wait_Fsm_Proc *****************
  5225 ;; Defined at:
  5226 ;;		line 489 in file "timer13.c"
  5227 ;; Parameters:    Size  Location     Type
  5228 ;;		None
  5229 ;; Auto vars:     Size  Location     Type
  5230 ;;		None
  5231 ;; Return value:  Size  Location     Type
  5232 ;;                  1    wreg      void 
  5233 ;; Registers used:
  5234 ;;		wreg, fsr0l, fsr0h, status,2, status,0, pclath, cstack
  5235 ;; Tracked objects:
  5236 ;;		On entry : 0/0
  5237 ;;		On exit  : 0/0
  5238 ;;		Unchanged: 0/0
  5239 ;; Data sizes:     COMMON   BANK0   BANK1   BANK3   BANK2
  5240 ;;      Params:         0       0       0       0       0
  5241 ;;      Locals:         0       0       0       0       0
  5242 ;;      Temps:          0       4       0       0       0
  5243 ;;      Totals:         0       4       0       0       0
  5244 ;;Total ram usage:        4 bytes
  5245 ;; Hardware stack levels used:    1
  5246 ;; Hardware stack levels required when called:    5
  5247 ;; This function calls:
  5248 ;;		_Data_Str_Disp_LCD
  5249 ;;		_E_Wait_Fsm_Proc
  5250 ;;		_Goto_XY_LCD_Disp
  5251 ;; This function is called by:
  5252 ;;		_Traffic_Fsm
  5253 ;;		_Traffic_Init
  5254 ;; This function uses a non-reentrant model
  5255 ;;
  5256                           
  5257                           
  5258                           ;psect for function _Startup_E_Wait_Fsm_Proc
  5259  0C44                     _Startup_E_Wait_Fsm_Proc:	
  5260                           
  5261                           ;timer13.c: 491: cur_e_red_left_secs = (5);
  5262                           
  5263                           ;incstack = 0
  5264                           ; Regs used in _Startup_E_Wait_Fsm_Proc: [wreg-fsr0h+status,2+status,0+pclath+cstack]
  5265  0C44  3005               	movlw	5
  5266  0C45  1283               	bcf	3,5	;RP0=0, select bank0
  5267  0C46  1303               	bcf	3,6	;RP1=0, select bank0
  5268  0C47  00BA               	movwf	_cur_e_red_left_secs
  5269  0C48  3000               	movlw	0
  5270  0C49  00BB               	movwf	_cur_e_red_left_secs+1
  5271                           
  5272                           ;timer13.c: 492: cur_e_yellow_left_secs = (5);
  5273  0C4A  3005               	movlw	5
  5274  0C4B  00B8               	movwf	_cur_e_yellow_left_secs
  5275  0C4C  3000               	movlw	0
  5276  0C4D  00B9               	movwf	_cur_e_yellow_left_secs+1
  5277                           
  5278                           ;timer13.c: 493: cur_e_green_left_secs = (5) + w_green_duration + (5) + n_green_duration
      +                           + (5) + s_green_duration + (5);
  5279  0C4E  0864               	movf	_n_green_duration,w
  5280  0C4F  0766               	addwf	_w_green_duration,w
  5281  0C50  00DA               	movwf	??_Startup_E_Wait_Fsm_Proc
  5282  0C51  0865               	movf	_n_green_duration+1,w
  5283  0C52  1803               	skipnc
  5284  0C53  0A65               	incf	_n_green_duration+1,w
  5285  0C54  0767               	addwf	_w_green_duration+1,w
  5286  0C55  00DB               	movwf	??_Startup_E_Wait_Fsm_Proc+1
  5287  0C56  0862               	movf	_s_green_duration,w
  5288  0C57  075A               	addwf	??_Startup_E_Wait_Fsm_Proc,w
  5289  0C58  00DC               	movwf	??_Startup_E_Wait_Fsm_Proc+2
  5290  0C59  0863               	movf	_s_green_duration+1,w
  5291  0C5A  1803               	skipnc
  5292  0C5B  0A63               	incf	_s_green_duration+1,w
  5293  0C5C  075B               	addwf	??_Startup_E_Wait_Fsm_Proc+1,w
  5294  0C5D  00DD               	movwf	??_Startup_E_Wait_Fsm_Proc+3
  5295  0C5E  085C               	movf	??_Startup_E_Wait_Fsm_Proc+2,w
  5296  0C5F  3E14               	addlw	20
  5297  0C60  00B6               	movwf	_cur_e_green_left_secs
  5298  0C61  085D               	movf	??_Startup_E_Wait_Fsm_Proc+3,w
  5299  0C62  1803               	skipnc
  5300  0C63  3E01               	addlw	1
  5301  0C64  3E00               	addlw	0
  5302  0C65  00B7               	movwf	_cur_e_green_left_secs+1
  5303                           
  5304                           ;timer13.c: 494: cur_w_red_left_secs = (5);
  5305  0C66  3005               	movlw	5
  5306  0C67  00B2               	movwf	_cur_w_red_left_secs
  5307  0C68  3000               	movlw	0
  5308  0C69  00B3               	movwf	_cur_w_red_left_secs+1
  5309                           
  5310                           ;timer13.c: 495: cur_w_yellow_left_secs = (5) + w_green_duration;
  5311  0C6A  0866               	movf	_w_green_duration,w
  5312  0C6B  3E05               	addlw	5
  5313  0C6C  00B0               	movwf	_cur_w_yellow_left_secs
  5314  0C6D  0867               	movf	_w_green_duration+1,w
  5315  0C6E  1803               	skipnc
  5316  0C6F  3E01               	addlw	1
  5317  0C70  3E00               	addlw	0
  5318  0C71  00B1               	movwf	_cur_w_yellow_left_secs+1
  5319                           
  5320                           ;timer13.c: 496: cur_w_green_left_secs = (5);
  5321  0C72  3005               	movlw	5
  5322  0C73  00AE               	movwf	_cur_w_green_left_secs
  5323  0C74  3000               	movlw	0
  5324  0C75  00AF               	movwf	_cur_w_green_left_secs+1
  5325                           
  5326                           ;timer13.c: 497: cur_n_red_left_secs = (5) + w_green_duration + (5) ;
  5327  0C76  0866               	movf	_w_green_duration,w
  5328  0C77  3E0A               	addlw	10
  5329  0C78  00AA               	movwf	_cur_n_red_left_secs
  5330  0C79  0867               	movf	_w_green_duration+1,w
  5331  0C7A  1803               	skipnc
  5332  0C7B  3E01               	addlw	1
  5333  0C7C  3E00               	addlw	0
  5334  0C7D  00AB               	movwf	_cur_n_red_left_secs+1
  5335                           
  5336                           ;timer13.c: 498: cur_n_yellow_left_secs = (5) + w_green_duration + (5) + n_green_duratio
      +                          n;
  5337  0C7E  0864               	movf	_n_green_duration,w
  5338  0C7F  0766               	addwf	_w_green_duration,w
  5339  0C80  00DA               	movwf	??_Startup_E_Wait_Fsm_Proc
  5340  0C81  0865               	movf	_n_green_duration+1,w
  5341  0C82  1803               	skipnc
  5342  0C83  0A65               	incf	_n_green_duration+1,w
  5343  0C84  0767               	addwf	_w_green_duration+1,w
  5344  0C85  00DB               	movwf	??_Startup_E_Wait_Fsm_Proc+1
  5345  0C86  085A               	movf	??_Startup_E_Wait_Fsm_Proc,w
  5346  0C87  3E0A               	addlw	10
  5347  0C88  00A8               	movwf	_cur_n_yellow_left_secs
  5348  0C89  085B               	movf	??_Startup_E_Wait_Fsm_Proc+1,w
  5349  0C8A  1803               	skipnc
  5350  0C8B  3E01               	addlw	1
  5351  0C8C  3E00               	addlw	0
  5352  0C8D  00A9               	movwf	_cur_n_yellow_left_secs+1
  5353                           
  5354                           ;timer13.c: 499: cur_n_green_left_secs = (5) + w_green_duration + (5) ;
  5355  0C8E  0866               	movf	_w_green_duration,w
  5356  0C8F  3E0A               	addlw	10
  5357  0C90  00A6               	movwf	_cur_n_green_left_secs
  5358  0C91  0867               	movf	_w_green_duration+1,w
  5359  0C92  1803               	skipnc
  5360  0C93  3E01               	addlw	1
  5361  0C94  3E00               	addlw	0
  5362  0C95  00A7               	movwf	_cur_n_green_left_secs+1
  5363                           
  5364                           ;timer13.c: 500: cur_s_red_left_secs = (5) + w_green_duration + (5) + n_green_duration +
      +                           (5);
  5365  0C96  0864               	movf	_n_green_duration,w
  5366  0C97  0766               	addwf	_w_green_duration,w
  5367  0C98  00DA               	movwf	??_Startup_E_Wait_Fsm_Proc
  5368  0C99  0865               	movf	_n_green_duration+1,w
  5369  0C9A  1803               	skipnc
  5370  0C9B  0A65               	incf	_n_green_duration+1,w
  5371  0C9C  0767               	addwf	_w_green_duration+1,w
  5372  0C9D  00DB               	movwf	??_Startup_E_Wait_Fsm_Proc+1
  5373  0C9E  085A               	movf	??_Startup_E_Wait_Fsm_Proc,w
  5374  0C9F  3E0F               	addlw	15
  5375  0CA0  00A4               	movwf	_cur_s_red_left_secs
  5376  0CA1  085B               	movf	??_Startup_E_Wait_Fsm_Proc+1,w
  5377  0CA2  1803               	skipnc
  5378  0CA3  3E01               	addlw	1
  5379  0CA4  3E00               	addlw	0
  5380  0CA5  00A5               	movwf	_cur_s_red_left_secs+1
  5381                           
  5382                           ;timer13.c: 501: cur_s_yellow_left_secs = (5) + w_green_duration + (5) + n_green_duratio
      +                          n + (5) + s_green_duration ;
  5383  0CA6  0864               	movf	_n_green_duration,w
  5384  0CA7  0766               	addwf	_w_green_duration,w
  5385  0CA8  00DA               	movwf	??_Startup_E_Wait_Fsm_Proc
  5386  0CA9  0865               	movf	_n_green_duration+1,w
  5387  0CAA  1803               	skipnc
  5388  0CAB  0A65               	incf	_n_green_duration+1,w
  5389  0CAC  0767               	addwf	_w_green_duration+1,w
  5390  0CAD  00DB               	movwf	??_Startup_E_Wait_Fsm_Proc+1
  5391  0CAE  0862               	movf	_s_green_duration,w
  5392  0CAF  075A               	addwf	??_Startup_E_Wait_Fsm_Proc,w
  5393  0CB0  00DC               	movwf	??_Startup_E_Wait_Fsm_Proc+2
  5394  0CB1  0863               	movf	_s_green_duration+1,w
  5395  0CB2  1803               	skipnc
  5396  0CB3  0A63               	incf	_s_green_duration+1,w
  5397  0CB4  075B               	addwf	??_Startup_E_Wait_Fsm_Proc+1,w
  5398  0CB5  00DD               	movwf	??_Startup_E_Wait_Fsm_Proc+3
  5399  0CB6  085C               	movf	??_Startup_E_Wait_Fsm_Proc+2,w
  5400  0CB7  3E0F               	addlw	15
  5401  0CB8  00A2               	movwf	_cur_s_yellow_left_secs
  5402  0CB9  085D               	movf	??_Startup_E_Wait_Fsm_Proc+3,w
  5403  0CBA  1803               	skipnc
  5404  0CBB  3E01               	addlw	1
  5405  0CBC  3E00               	addlw	0
  5406  0CBD  00A3               	movwf	_cur_s_yellow_left_secs+1
  5407                           
  5408                           ;timer13.c: 502: cur_s_green_left_secs = (5) + w_green_duration + (5) + n_green_duration
      +                           + (5);
  5409  0CBE  0864               	movf	_n_green_duration,w
  5410  0CBF  0766               	addwf	_w_green_duration,w
  5411  0CC0  00DA               	movwf	??_Startup_E_Wait_Fsm_Proc
  5412  0CC1  0865               	movf	_n_green_duration+1,w
  5413  0CC2  1803               	skipnc
  5414  0CC3  0A65               	incf	_n_green_duration+1,w
  5415  0CC4  0767               	addwf	_w_green_duration+1,w
  5416  0CC5  00DB               	movwf	??_Startup_E_Wait_Fsm_Proc+1
  5417  0CC6  085A               	movf	??_Startup_E_Wait_Fsm_Proc,w
  5418  0CC7  3E0F               	addlw	15
  5419  0CC8  00A0               	movwf	_cur_s_green_left_secs
  5420  0CC9  085B               	movf	??_Startup_E_Wait_Fsm_Proc+1,w
  5421  0CCA  1803               	skipnc
  5422  0CCB  3E01               	addlw	1
  5423  0CCC  3E00               	addlw	0
  5424  0CCD  00A1               	movwf	_cur_s_green_left_secs+1
  5425                           
  5426                           ;timer13.c: 504: Goto_XY_LCD_Disp((1u), (14U));
  5427  0CCE  3001               	movlw	1
  5428  0CCF  00F4               	movwf	Goto_XY_LCD_Disp@line_num
  5429  0CD0  3000               	movlw	0
  5430  0CD1  00F5               	movwf	Goto_XY_LCD_Disp@line_num+1
  5431  0CD2  300E               	movlw	14
  5432  0CD3  00F6               	movwf	Goto_XY_LCD_Disp@col_num
  5433  0CD4  3000               	movlw	0
  5434  0CD5  00F7               	movwf	Goto_XY_LCD_Disp@col_num+1
  5435  0CD6  160A  118A  26AD  120A  158A  	fcall	_Goto_XY_LCD_Disp
  5436                           
  5437                           ;timer13.c: 505: Data_Str_Disp_LCD(blank_traffic_disp);
  5438  0CDB  302F               	movlw	(low ((_blank_traffic_disp-__stringbase)| (0+32768)))& (0+255)
  5439  0CDC  160A  118A  25D5  120A  158A  	fcall	_Data_Str_Disp_LCD
  5440                           
  5441                           ;timer13.c: 506: Goto_XY_LCD_Disp((1u), (3u));
  5442  0CE1  3001               	movlw	1
  5443  0CE2  00F4               	movwf	Goto_XY_LCD_Disp@line_num
  5444  0CE3  3000               	movlw	0
  5445  0CE4  00F5               	movwf	Goto_XY_LCD_Disp@line_num+1
  5446  0CE5  3003               	movlw	3
  5447  0CE6  00F6               	movwf	Goto_XY_LCD_Disp@col_num
  5448  0CE7  3000               	movlw	0
  5449  0CE8  00F7               	movwf	Goto_XY_LCD_Disp@col_num+1
  5450  0CE9  160A  118A  26AD  120A  158A  	fcall	_Goto_XY_LCD_Disp
  5451                           
  5452                           ;timer13.c: 507: Data_Str_Disp_LCD(yellow_disp);
  5453  0CEE  300D               	movlw	(low ((_yellow_disp-__stringbase)| (0+32768)))& (0+255)
  5454  0CEF  160A  118A  25D5  120A  158A  	fcall	_Data_Str_Disp_LCD
  5455                           
  5456                           ;timer13.c: 508: Goto_XY_LCD_Disp((2u),(3u));
  5457  0CF4  3002               	movlw	2
  5458  0CF5  00F4               	movwf	Goto_XY_LCD_Disp@line_num
  5459  0CF6  3000               	movlw	0
  5460  0CF7  00F5               	movwf	Goto_XY_LCD_Disp@line_num+1
  5461  0CF8  3003               	movlw	3
  5462  0CF9  00F6               	movwf	Goto_XY_LCD_Disp@col_num
  5463  0CFA  3000               	movlw	0
  5464  0CFB  00F7               	movwf	Goto_XY_LCD_Disp@col_num+1
  5465  0CFC  160A  118A  26AD  120A  158A  	fcall	_Goto_XY_LCD_Disp
  5466                           
  5467                           ;timer13.c: 509: Data_Str_Disp_LCD(red_disp);
  5468  0D01  301F               	movlw	(low ((_red_disp-__stringbase)| (0+32768)))& (0+255)
  5469  0D02  160A  118A  25D5  120A  158A  	fcall	_Data_Str_Disp_LCD
  5470                           
  5471                           ;timer13.c: 510: Goto_XY_LCD_Disp((3u),(3u));
  5472  0D07  3003               	movlw	3
  5473  0D08  00F4               	movwf	Goto_XY_LCD_Disp@line_num
  5474  0D09  3000               	movlw	0
  5475  0D0A  00F5               	movwf	Goto_XY_LCD_Disp@line_num+1
  5476  0D0B  3003               	movlw	3
  5477  0D0C  00F6               	movwf	Goto_XY_LCD_Disp@col_num
  5478  0D0D  3000               	movlw	0
  5479  0D0E  00F7               	movwf	Goto_XY_LCD_Disp@col_num+1
  5480  0D0F  160A  118A  26AD  120A  158A  	fcall	_Goto_XY_LCD_Disp
  5481                           
  5482                           ;timer13.c: 511: Data_Str_Disp_LCD(red_disp);
  5483  0D14  301F               	movlw	(low ((_red_disp-__stringbase)| (0+32768)))& (0+255)
  5484  0D15  160A  118A  25D5  120A  158A  	fcall	_Data_Str_Disp_LCD
  5485                           
  5486                           ;timer13.c: 512: Goto_XY_LCD_Disp((4u),(3u));
  5487  0D1A  3004               	movlw	4
  5488  0D1B  00F4               	movwf	Goto_XY_LCD_Disp@line_num
  5489  0D1C  3000               	movlw	0
  5490  0D1D  00F5               	movwf	Goto_XY_LCD_Disp@line_num+1
  5491  0D1E  3003               	movlw	3
  5492  0D1F  00F6               	movwf	Goto_XY_LCD_Disp@col_num
  5493  0D20  3000               	movlw	0
  5494  0D21  00F7               	movwf	Goto_XY_LCD_Disp@col_num+1
  5495  0D22  160A  118A  26AD  120A  158A  	fcall	_Goto_XY_LCD_Disp
  5496                           
  5497                           ;timer13.c: 513: Data_Str_Disp_LCD(red_disp);
  5498  0D27  301F               	movlw	(low ((_red_disp-__stringbase)| (0+32768)))& (0+255)
  5499  0D28  160A  118A  25D5  120A  158A  	fcall	_Data_Str_Disp_LCD
  5500                           
  5501                           ;timer13.c: 514: E_Wait_Fsm_Proc();
  5502  0D2D  120A  158A  209E   	fcall	_E_Wait_Fsm_Proc
  5503  0D30  0008               	return
  5504  0D31                     __end_of_Startup_E_Wait_Fsm_Proc:	
  5505                           
  5506                           	psect	text18
  5507  089E                     __ptext18:	
  5508 ;; *************** function _E_Wait_Fsm_Proc *****************
  5509 ;; Defined at:
  5510 ;;		line 701 in file "timer13.c"
  5511 ;; Parameters:    Size  Location     Type
  5512 ;;		None
  5513 ;; Auto vars:     Size  Location     Type
  5514 ;;		None
  5515 ;; Return value:  Size  Location     Type
  5516 ;;                  1    wreg      void 
  5517 ;; Registers used:
  5518 ;;		wreg, fsr0l, fsr0h, status,2, status,0, pclath, cstack
  5519 ;; Tracked objects:
  5520 ;;		On entry : 0/0
  5521 ;;		On exit  : 0/0
  5522 ;;		Unchanged: 0/0
  5523 ;; Data sizes:     COMMON   BANK0   BANK1   BANK3   BANK2
  5524 ;;      Params:         0       0       0       0       0
  5525 ;;      Locals:         0       0       0       0       0
  5526 ;;      Temps:          0       0       0       0       0
  5527 ;;      Totals:         0       0       0       0       0
  5528 ;;Total ram usage:        0 bytes
  5529 ;; Hardware stack levels used:    1
  5530 ;; Hardware stack levels required when called:    4
  5531 ;; This function calls:
  5532 ;;		_Data_3Digit_Num_Disp_LCD
  5533 ;;		_Goto_XY_LCD_Disp
  5534 ;; This function is called by:
  5535 ;;		_Traffic_Fsm
  5536 ;;		_Startup_E_Wait_Fsm_Proc
  5537 ;; This function uses a non-reentrant model
  5538 ;;
  5539                           
  5540                           
  5541                           ;psect for function _E_Wait_Fsm_Proc
  5542  089E                     _E_Wait_Fsm_Proc:	
  5543                           
  5544                           ;timer13.c: 703: PORTA = 0x12;
  5545                           
  5546                           ;incstack = 0
  5547                           ; Regs used in _E_Wait_Fsm_Proc: [wreg-fsr0h+status,2+status,0+pclath+cstack]
  5548  089E  3012               	movlw	18
  5549  089F  1283               	bcf	3,5	;RP0=0, select bank0
  5550  08A0  1303               	bcf	3,6	;RP1=0, select bank0
  5551  08A1  0085               	movwf	5	;volatile
  5552                           
  5553                           ;timer13.c: 704: PORTC = 0x11;
  5554  08A2  3011               	movlw	17
  5555  08A3  0087               	movwf	7	;volatile
  5556                           
  5557                           ;timer13.c: 707: Goto_XY_LCD_Disp((1u), (15U));
  5558  08A4  3001               	movlw	1
  5559  08A5  00F4               	movwf	Goto_XY_LCD_Disp@line_num
  5560  08A6  3000               	movlw	0
  5561  08A7  00F5               	movwf	Goto_XY_LCD_Disp@line_num+1
  5562  08A8  300F               	movlw	15
  5563  08A9  00F6               	movwf	Goto_XY_LCD_Disp@col_num
  5564  08AA  3000               	movlw	0
  5565  08AB  00F7               	movwf	Goto_XY_LCD_Disp@col_num+1
  5566  08AC  160A  118A  26AD  120A  158A  	fcall	_Goto_XY_LCD_Disp
  5567                           
  5568                           ;timer13.c: 708: Data_3Digit_Num_Disp_LCD(cur_e_yellow_left_secs);
  5569  08B1  1283               	bcf	3,5	;RP0=0, select bank0
  5570  08B2  1303               	bcf	3,6	;RP1=0, select bank0
  5571  08B3  0839               	movf	_cur_e_yellow_left_secs+1,w
  5572  08B4  00C3               	movwf	Data_3Digit_Num_Disp_LCD@data_int+1
  5573  08B5  0838               	movf	_cur_e_yellow_left_secs,w
  5574  08B6  00C2               	movwf	Data_3Digit_Num_Disp_LCD@data_int
  5575  08B7  120A  118A  203B  120A  158A  	fcall	_Data_3Digit_Num_Disp_LCD
  5576                           
  5577                           ;timer13.c: 711: Goto_XY_LCD_Disp((2u), (15U));
  5578  08BC  3002               	movlw	2
  5579  08BD  00F4               	movwf	Goto_XY_LCD_Disp@line_num
  5580  08BE  3000               	movlw	0
  5581  08BF  00F5               	movwf	Goto_XY_LCD_Disp@line_num+1
  5582  08C0  300F               	movlw	15
  5583  08C1  00F6               	movwf	Goto_XY_LCD_Disp@col_num
  5584  08C2  3000               	movlw	0
  5585  08C3  00F7               	movwf	Goto_XY_LCD_Disp@col_num+1
  5586  08C4  160A  118A  26AD  120A  158A  	fcall	_Goto_XY_LCD_Disp
  5587                           
  5588                           ;timer13.c: 712: Data_3Digit_Num_Disp_LCD(cur_w_red_left_secs);
  5589  08C9  1283               	bcf	3,5	;RP0=0, select bank0
  5590  08CA  1303               	bcf	3,6	;RP1=0, select bank0
  5591  08CB  0833               	movf	_cur_w_red_left_secs+1,w
  5592  08CC  00C3               	movwf	Data_3Digit_Num_Disp_LCD@data_int+1
  5593  08CD  0832               	movf	_cur_w_red_left_secs,w
  5594  08CE  00C2               	movwf	Data_3Digit_Num_Disp_LCD@data_int
  5595  08CF  120A  118A  203B  120A  158A  	fcall	_Data_3Digit_Num_Disp_LCD
  5596                           
  5597                           ;timer13.c: 715: Goto_XY_LCD_Disp((3u), (15U));
  5598  08D4  3003               	movlw	3
  5599  08D5  00F4               	movwf	Goto_XY_LCD_Disp@line_num
  5600  08D6  3000               	movlw	0
  5601  08D7  00F5               	movwf	Goto_XY_LCD_Disp@line_num+1
  5602  08D8  300F               	movlw	15
  5603  08D9  00F6               	movwf	Goto_XY_LCD_Disp@col_num
  5604  08DA  3000               	movlw	0
  5605  08DB  00F7               	movwf	Goto_XY_LCD_Disp@col_num+1
  5606  08DC  160A  118A  26AD  120A  158A  	fcall	_Goto_XY_LCD_Disp
  5607                           
  5608                           ;timer13.c: 716: Data_3Digit_Num_Disp_LCD(cur_n_red_left_secs);
  5609  08E1  1283               	bcf	3,5	;RP0=0, select bank0
  5610  08E2  1303               	bcf	3,6	;RP1=0, select bank0
  5611  08E3  082B               	movf	_cur_n_red_left_secs+1,w
  5612  08E4  00C3               	movwf	Data_3Digit_Num_Disp_LCD@data_int+1
  5613  08E5  082A               	movf	_cur_n_red_left_secs,w
  5614  08E6  00C2               	movwf	Data_3Digit_Num_Disp_LCD@data_int
  5615  08E7  120A  118A  203B  120A  158A  	fcall	_Data_3Digit_Num_Disp_LCD
  5616                           
  5617                           ;timer13.c: 719: Goto_XY_LCD_Disp((4u), (15U));
  5618  08EC  3004               	movlw	4
  5619  08ED  00F4               	movwf	Goto_XY_LCD_Disp@line_num
  5620  08EE  3000               	movlw	0
  5621  08EF  00F5               	movwf	Goto_XY_LCD_Disp@line_num+1
  5622  08F0  300F               	movlw	15
  5623  08F1  00F6               	movwf	Goto_XY_LCD_Disp@col_num
  5624  08F2  3000               	movlw	0
  5625  08F3  00F7               	movwf	Goto_XY_LCD_Disp@col_num+1
  5626  08F4  160A  118A  26AD  120A  158A  	fcall	_Goto_XY_LCD_Disp
  5627                           
  5628                           ;timer13.c: 720: Data_3Digit_Num_Disp_LCD(cur_s_red_left_secs);
  5629  08F9  1283               	bcf	3,5	;RP0=0, select bank0
  5630  08FA  1303               	bcf	3,6	;RP1=0, select bank0
  5631  08FB  0825               	movf	_cur_s_red_left_secs+1,w
  5632  08FC  00C3               	movwf	Data_3Digit_Num_Disp_LCD@data_int+1
  5633  08FD  0824               	movf	_cur_s_red_left_secs,w
  5634  08FE  00C2               	movwf	Data_3Digit_Num_Disp_LCD@data_int
  5635  08FF  120A  118A  203B   	fcall	_Data_3Digit_Num_Disp_LCD
  5636  0902  0008               	return
  5637  0903                     __end_of_E_Wait_Fsm_Proc:	
  5638                           
  5639                           	psect	text19
  5640  00D8                     __ptext19:	
  5641 ;; *************** function _Startup_E_Go_Fsm_Proc *****************
  5642 ;; Defined at:
  5643 ;;		line 463 in file "timer13.c"
  5644 ;; Parameters:    Size  Location     Type
  5645 ;;		None
  5646 ;; Auto vars:     Size  Location     Type
  5647 ;;		None
  5648 ;; Return value:  Size  Location     Type
  5649 ;;                  1    wreg      void 
  5650 ;; Registers used:
  5651 ;;		wreg, fsr0l, fsr0h, status,2, status,0, pclath, cstack
  5652 ;; Tracked objects:
  5653 ;;		On entry : 0/0
  5654 ;;		On exit  : 0/0
  5655 ;;		Unchanged: 0/0
  5656 ;; Data sizes:     COMMON   BANK0   BANK1   BANK3   BANK2
  5657 ;;      Params:         0       0       0       0       0
  5658 ;;      Locals:         0       0       0       0       0
  5659 ;;      Temps:          0       6       0       0       0
  5660 ;;      Totals:         0       6       0       0       0
  5661 ;;Total ram usage:        6 bytes
  5662 ;; Hardware stack levels used:    1
  5663 ;; Hardware stack levels required when called:    5
  5664 ;; This function calls:
  5665 ;;		_Data_Str_Disp_LCD
  5666 ;;		_E_Go_Fsm_Proc
  5667 ;;		_Goto_XY_LCD_Disp
  5668 ;; This function is called by:
  5669 ;;		_Traffic_Fsm
  5670 ;;		_Traffic_Init
  5671 ;; This function uses a non-reentrant model
  5672 ;;
  5673                           
  5674                           
  5675                           ;psect for function _Startup_E_Go_Fsm_Proc
  5676  00D8                     _Startup_E_Go_Fsm_Proc:	
  5677                           
  5678                           ;timer13.c: 465: cur_e_red_left_secs = e_green_duration + (5);
  5679                           
  5680                           ;incstack = 0
  5681                           ; Regs used in _Startup_E_Go_Fsm_Proc: [wreg-fsr0h+status,2+status,0+pclath+cstack]
  5682  00D8  1283               	bcf	3,5	;RP0=0, select bank0
  5683  00D9  1303               	bcf	3,6	;RP1=0, select bank0
  5684  00DA  0868               	movf	_e_green_duration,w
  5685  00DB  3E05               	addlw	5
  5686  00DC  00BA               	movwf	_cur_e_red_left_secs
  5687  00DD  0869               	movf	_e_green_duration+1,w
  5688  00DE  1803               	skipnc
  5689  00DF  3E01               	addlw	1
  5690  00E0  3E00               	addlw	0
  5691  00E1  00BB               	movwf	_cur_e_red_left_secs+1
  5692                           
  5693                           ;timer13.c: 466: cur_e_yellow_left_secs = e_green_duration;
  5694  00E2  0869               	movf	_e_green_duration+1,w
  5695  00E3  00B9               	movwf	_cur_e_yellow_left_secs+1
  5696  00E4  0868               	movf	_e_green_duration,w
  5697  00E5  00B8               	movwf	_cur_e_yellow_left_secs
  5698                           
  5699                           ;timer13.c: 467: cur_e_green_left_secs = e_green_duration;
  5700  00E6  0869               	movf	_e_green_duration+1,w
  5701  00E7  00B7               	movwf	_cur_e_green_left_secs+1
  5702  00E8  0868               	movf	_e_green_duration,w
  5703  00E9  00B6               	movwf	_cur_e_green_left_secs
  5704                           
  5705                           ;timer13.c: 468: cur_w_red_left_secs = e_green_duration + (5);
  5706  00EA  0868               	movf	_e_green_duration,w
  5707  00EB  3E05               	addlw	5
  5708  00EC  00B2               	movwf	_cur_w_red_left_secs
  5709  00ED  0869               	movf	_e_green_duration+1,w
  5710  00EE  1803               	skipnc
  5711  00EF  3E01               	addlw	1
  5712  00F0  3E00               	addlw	0
  5713  00F1  00B3               	movwf	_cur_w_red_left_secs+1
  5714                           
  5715                           ;timer13.c: 469: cur_w_yellow_left_secs = e_green_duration + (5) + w_green_duration;
  5716  00F2  0866               	movf	_w_green_duration,w
  5717  00F3  0768               	addwf	_e_green_duration,w
  5718  00F4  00DA               	movwf	??_Startup_E_Go_Fsm_Proc
  5719  00F5  0867               	movf	_w_green_duration+1,w
  5720  00F6  1803               	skipnc
  5721  00F7  0A67               	incf	_w_green_duration+1,w
  5722  00F8  0769               	addwf	_e_green_duration+1,w
  5723  00F9  00DB               	movwf	??_Startup_E_Go_Fsm_Proc+1
  5724  00FA  085A               	movf	??_Startup_E_Go_Fsm_Proc,w
  5725  00FB  3E05               	addlw	5
  5726  00FC  00B0               	movwf	_cur_w_yellow_left_secs
  5727  00FD  085B               	movf	??_Startup_E_Go_Fsm_Proc+1,w
  5728  00FE  1803               	skipnc
  5729  00FF  3E01               	addlw	1
  5730  0100  3E00               	addlw	0
  5731  0101  00B1               	movwf	_cur_w_yellow_left_secs+1
  5732                           
  5733                           ;timer13.c: 470: cur_w_green_left_secs = e_green_duration + (5);
  5734  0102  0868               	movf	_e_green_duration,w
  5735  0103  3E05               	addlw	5
  5736  0104  00AE               	movwf	_cur_w_green_left_secs
  5737  0105  0869               	movf	_e_green_duration+1,w
  5738  0106  1803               	skipnc
  5739  0107  3E01               	addlw	1
  5740  0108  3E00               	addlw	0
  5741  0109  00AF               	movwf	_cur_w_green_left_secs+1
  5742                           
  5743                           ;timer13.c: 471: cur_n_red_left_secs = e_green_duration + (5) + w_green_duration + (5) ;
  5744  010A  0866               	movf	_w_green_duration,w
  5745  010B  0768               	addwf	_e_green_duration,w
  5746  010C  00DA               	movwf	??_Startup_E_Go_Fsm_Proc
  5747  010D  0867               	movf	_w_green_duration+1,w
  5748  010E  1803               	skipnc
  5749  010F  0A67               	incf	_w_green_duration+1,w
  5750  0110  0769               	addwf	_e_green_duration+1,w
  5751  0111  00DB               	movwf	??_Startup_E_Go_Fsm_Proc+1
  5752  0112  085A               	movf	??_Startup_E_Go_Fsm_Proc,w
  5753  0113  3E0A               	addlw	10
  5754  0114  00AA               	movwf	_cur_n_red_left_secs
  5755  0115  085B               	movf	??_Startup_E_Go_Fsm_Proc+1,w
  5756  0116  1803               	skipnc
  5757  0117  3E01               	addlw	1
  5758  0118  3E00               	addlw	0
  5759  0119  00AB               	movwf	_cur_n_red_left_secs+1
  5760                           
  5761                           ;timer13.c: 472: cur_n_yellow_left_secs = e_green_duration + (5) + w_green_duration + (5
      +                          ) + n_green_duration;
  5762  011A  0866               	movf	_w_green_duration,w
  5763  011B  0768               	addwf	_e_green_duration,w
  5764  011C  00DA               	movwf	??_Startup_E_Go_Fsm_Proc
  5765  011D  0867               	movf	_w_green_duration+1,w
  5766  011E  1803               	skipnc
  5767  011F  0A67               	incf	_w_green_duration+1,w
  5768  0120  0769               	addwf	_e_green_duration+1,w
  5769  0121  00DB               	movwf	??_Startup_E_Go_Fsm_Proc+1
  5770  0122  0864               	movf	_n_green_duration,w
  5771  0123  075A               	addwf	??_Startup_E_Go_Fsm_Proc,w
  5772  0124  00DC               	movwf	??_Startup_E_Go_Fsm_Proc+2
  5773  0125  0865               	movf	_n_green_duration+1,w
  5774  0126  1803               	skipnc
  5775  0127  0A65               	incf	_n_green_duration+1,w
  5776  0128  075B               	addwf	??_Startup_E_Go_Fsm_Proc+1,w
  5777  0129  00DD               	movwf	??_Startup_E_Go_Fsm_Proc+3
  5778  012A  085C               	movf	??_Startup_E_Go_Fsm_Proc+2,w
  5779  012B  3E0A               	addlw	10
  5780  012C  00A8               	movwf	_cur_n_yellow_left_secs
  5781  012D  085D               	movf	??_Startup_E_Go_Fsm_Proc+3,w
  5782  012E  1803               	skipnc
  5783  012F  3E01               	addlw	1
  5784  0130  3E00               	addlw	0
  5785  0131  00A9               	movwf	_cur_n_yellow_left_secs+1
  5786                           
  5787                           ;timer13.c: 473: cur_n_green_left_secs = e_green_duration + (5) + w_green_duration + (5)
      +                           ;
  5788  0132  0866               	movf	_w_green_duration,w
  5789  0133  0768               	addwf	_e_green_duration,w
  5790  0134  00DA               	movwf	??_Startup_E_Go_Fsm_Proc
  5791  0135  0867               	movf	_w_green_duration+1,w
  5792  0136  1803               	skipnc
  5793  0137  0A67               	incf	_w_green_duration+1,w
  5794  0138  0769               	addwf	_e_green_duration+1,w
  5795  0139  00DB               	movwf	??_Startup_E_Go_Fsm_Proc+1
  5796  013A  085A               	movf	??_Startup_E_Go_Fsm_Proc,w
  5797  013B  3E0A               	addlw	10
  5798  013C  00A6               	movwf	_cur_n_green_left_secs
  5799  013D  085B               	movf	??_Startup_E_Go_Fsm_Proc+1,w
  5800  013E  1803               	skipnc
  5801  013F  3E01               	addlw	1
  5802  0140  3E00               	addlw	0
  5803  0141  00A7               	movwf	_cur_n_green_left_secs+1
  5804                           
  5805                           ;timer13.c: 474: cur_s_red_left_secs = e_green_duration + (5) + w_green_duration + (5) +
      +                           n_green_duration + (5);
  5806  0142  0866               	movf	_w_green_duration,w
  5807  0143  0768               	addwf	_e_green_duration,w
  5808  0144  00DA               	movwf	??_Startup_E_Go_Fsm_Proc
  5809  0145  0867               	movf	_w_green_duration+1,w
  5810  0146  1803               	skipnc
  5811  0147  0A67               	incf	_w_green_duration+1,w
  5812  0148  0769               	addwf	_e_green_duration+1,w
  5813  0149  00DB               	movwf	??_Startup_E_Go_Fsm_Proc+1
  5814  014A  0864               	movf	_n_green_duration,w
  5815  014B  075A               	addwf	??_Startup_E_Go_Fsm_Proc,w
  5816  014C  00DC               	movwf	??_Startup_E_Go_Fsm_Proc+2
  5817  014D  0865               	movf	_n_green_duration+1,w
  5818  014E  1803               	skipnc
  5819  014F  0A65               	incf	_n_green_duration+1,w
  5820  0150  075B               	addwf	??_Startup_E_Go_Fsm_Proc+1,w
  5821  0151  00DD               	movwf	??_Startup_E_Go_Fsm_Proc+3
  5822  0152  085C               	movf	??_Startup_E_Go_Fsm_Proc+2,w
  5823  0153  3E0F               	addlw	15
  5824  0154  00A4               	movwf	_cur_s_red_left_secs
  5825  0155  085D               	movf	??_Startup_E_Go_Fsm_Proc+3,w
  5826  0156  1803               	skipnc
  5827  0157  3E01               	addlw	1
  5828  0158  3E00               	addlw	0
  5829  0159  00A5               	movwf	_cur_s_red_left_secs+1
  5830                           
  5831                           ;timer13.c: 475: cur_s_yellow_left_secs = e_green_duration + (5) + w_green_duration + (5
      +                          ) + n_green_duration + (5) + s_green_duration ;
  5832  015A  0866               	movf	_w_green_duration,w
  5833  015B  0768               	addwf	_e_green_duration,w
  5834  015C  00DA               	movwf	??_Startup_E_Go_Fsm_Proc
  5835  015D  0867               	movf	_w_green_duration+1,w
  5836  015E  1803               	skipnc
  5837  015F  0A67               	incf	_w_green_duration+1,w
  5838  0160  0769               	addwf	_e_green_duration+1,w
  5839  0161  00DB               	movwf	??_Startup_E_Go_Fsm_Proc+1
  5840  0162  0864               	movf	_n_green_duration,w
  5841  0163  075A               	addwf	??_Startup_E_Go_Fsm_Proc,w
  5842  0164  00DC               	movwf	??_Startup_E_Go_Fsm_Proc+2
  5843  0165  0865               	movf	_n_green_duration+1,w
  5844  0166  1803               	skipnc
  5845  0167  0A65               	incf	_n_green_duration+1,w
  5846  0168  075B               	addwf	??_Startup_E_Go_Fsm_Proc+1,w
  5847  0169  00DD               	movwf	??_Startup_E_Go_Fsm_Proc+3
  5848  016A  0862               	movf	_s_green_duration,w
  5849  016B  075C               	addwf	??_Startup_E_Go_Fsm_Proc+2,w
  5850  016C  00DE               	movwf	??_Startup_E_Go_Fsm_Proc+4
  5851  016D  0863               	movf	_s_green_duration+1,w
  5852  016E  1803               	skipnc
  5853  016F  0A63               	incf	_s_green_duration+1,w
  5854  0170  075D               	addwf	??_Startup_E_Go_Fsm_Proc+3,w
  5855  0171  00DF               	movwf	??_Startup_E_Go_Fsm_Proc+5
  5856  0172  085E               	movf	??_Startup_E_Go_Fsm_Proc+4,w
  5857  0173  3E0F               	addlw	15
  5858  0174  00A2               	movwf	_cur_s_yellow_left_secs
  5859  0175  085F               	movf	??_Startup_E_Go_Fsm_Proc+5,w
  5860  0176  1803               	skipnc
  5861  0177  3E01               	addlw	1
  5862  0178  3E00               	addlw	0
  5863  0179  00A3               	movwf	_cur_s_yellow_left_secs+1
  5864                           
  5865                           ;timer13.c: 476: cur_s_green_left_secs = e_green_duration + (5) + w_green_duration + (5)
      +                           + n_green_duration + (5);
  5866  017A  0866               	movf	_w_green_duration,w
  5867  017B  0768               	addwf	_e_green_duration,w
  5868  017C  00DA               	movwf	??_Startup_E_Go_Fsm_Proc
  5869  017D  0867               	movf	_w_green_duration+1,w
  5870  017E  1803               	skipnc
  5871  017F  0A67               	incf	_w_green_duration+1,w
  5872  0180  0769               	addwf	_e_green_duration+1,w
  5873  0181  00DB               	movwf	??_Startup_E_Go_Fsm_Proc+1
  5874  0182  0864               	movf	_n_green_duration,w
  5875  0183  075A               	addwf	??_Startup_E_Go_Fsm_Proc,w
  5876  0184  00DC               	movwf	??_Startup_E_Go_Fsm_Proc+2
  5877  0185  0865               	movf	_n_green_duration+1,w
  5878  0186  1803               	skipnc
  5879  0187  0A65               	incf	_n_green_duration+1,w
  5880  0188  075B               	addwf	??_Startup_E_Go_Fsm_Proc+1,w
  5881  0189  00DD               	movwf	??_Startup_E_Go_Fsm_Proc+3
  5882  018A  085C               	movf	??_Startup_E_Go_Fsm_Proc+2,w
  5883  018B  3E0F               	addlw	15
  5884  018C  00A0               	movwf	_cur_s_green_left_secs
  5885  018D  085D               	movf	??_Startup_E_Go_Fsm_Proc+3,w
  5886  018E  1803               	skipnc
  5887  018F  3E01               	addlw	1
  5888  0190  3E00               	addlw	0
  5889  0191  00A1               	movwf	_cur_s_green_left_secs+1
  5890                           
  5891                           ;timer13.c: 478: Goto_XY_LCD_Disp((1u), (3u));
  5892  0192  3001               	movlw	1
  5893  0193  00F4               	movwf	Goto_XY_LCD_Disp@line_num
  5894  0194  3000               	movlw	0
  5895  0195  00F5               	movwf	Goto_XY_LCD_Disp@line_num+1
  5896  0196  3003               	movlw	3
  5897  0197  00F6               	movwf	Goto_XY_LCD_Disp@col_num
  5898  0198  3000               	movlw	0
  5899  0199  00F7               	movwf	Goto_XY_LCD_Disp@col_num+1
  5900  019A  160A  118A  26AD  120A  118A  	fcall	_Goto_XY_LCD_Disp
  5901                           
  5902                           ;timer13.c: 479: Data_Str_Disp_LCD(green_disp);
  5903  019F  3016               	movlw	(low ((_green_disp-__stringbase)| (0+32768)))& (0+255)
  5904  01A0  160A  118A  25D5  120A  118A  	fcall	_Data_Str_Disp_LCD
  5905                           
  5906                           ;timer13.c: 480: Goto_XY_LCD_Disp((2u),(3u));
  5907  01A5  3002               	movlw	2
  5908  01A6  00F4               	movwf	Goto_XY_LCD_Disp@line_num
  5909  01A7  3000               	movlw	0
  5910  01A8  00F5               	movwf	Goto_XY_LCD_Disp@line_num+1
  5911  01A9  3003               	movlw	3
  5912  01AA  00F6               	movwf	Goto_XY_LCD_Disp@col_num
  5913  01AB  3000               	movlw	0
  5914  01AC  00F7               	movwf	Goto_XY_LCD_Disp@col_num+1
  5915  01AD  160A  118A  26AD  120A  118A  	fcall	_Goto_XY_LCD_Disp
  5916                           
  5917                           ;timer13.c: 481: Data_Str_Disp_LCD(red_disp);
  5918  01B2  301F               	movlw	(low ((_red_disp-__stringbase)| (0+32768)))& (0+255)
  5919  01B3  160A  118A  25D5  120A  118A  	fcall	_Data_Str_Disp_LCD
  5920                           
  5921                           ;timer13.c: 482: Goto_XY_LCD_Disp((3u),(3u));
  5922  01B8  3003               	movlw	3
  5923  01B9  00F4               	movwf	Goto_XY_LCD_Disp@line_num
  5924  01BA  3000               	movlw	0
  5925  01BB  00F5               	movwf	Goto_XY_LCD_Disp@line_num+1
  5926  01BC  3003               	movlw	3
  5927  01BD  00F6               	movwf	Goto_XY_LCD_Disp@col_num
  5928  01BE  3000               	movlw	0
  5929  01BF  00F7               	movwf	Goto_XY_LCD_Disp@col_num+1
  5930  01C0  160A  118A  26AD  120A  118A  	fcall	_Goto_XY_LCD_Disp
  5931                           
  5932                           ;timer13.c: 483: Data_Str_Disp_LCD(red_disp);
  5933  01C5  301F               	movlw	(low ((_red_disp-__stringbase)| (0+32768)))& (0+255)
  5934  01C6  160A  118A  25D5  120A  118A  	fcall	_Data_Str_Disp_LCD
  5935                           
  5936                           ;timer13.c: 484: Goto_XY_LCD_Disp((4u),(3u));
  5937  01CB  3004               	movlw	4
  5938  01CC  00F4               	movwf	Goto_XY_LCD_Disp@line_num
  5939  01CD  3000               	movlw	0
  5940  01CE  00F5               	movwf	Goto_XY_LCD_Disp@line_num+1
  5941  01CF  3003               	movlw	3
  5942  01D0  00F6               	movwf	Goto_XY_LCD_Disp@col_num
  5943  01D1  3000               	movlw	0
  5944  01D2  00F7               	movwf	Goto_XY_LCD_Disp@col_num+1
  5945  01D3  160A  118A  26AD  120A  118A  	fcall	_Goto_XY_LCD_Disp
  5946                           
  5947                           ;timer13.c: 485: Data_Str_Disp_LCD(red_disp);
  5948  01D8  301F               	movlw	(low ((_red_disp-__stringbase)| (0+32768)))& (0+255)
  5949  01D9  160A  118A  25D5  120A  118A  	fcall	_Data_Str_Disp_LCD
  5950                           
  5951                           ;timer13.c: 487: E_Go_Fsm_Proc();
  5952  01DE  120A  158A  2039   	fcall	_E_Go_Fsm_Proc
  5953  01E1  0008               	return
  5954  01E2                     __end_of_Startup_E_Go_Fsm_Proc:	
  5955                           
  5956                           	psect	text20
  5957  0839                     __ptext20:	
  5958 ;; *************** function _E_Go_Fsm_Proc *****************
  5959 ;; Defined at:
  5960 ;;		line 680 in file "timer13.c"
  5961 ;; Parameters:    Size  Location     Type
  5962 ;;		None
  5963 ;; Auto vars:     Size  Location     Type
  5964 ;;		None
  5965 ;; Return value:  Size  Location     Type
  5966 ;;                  1    wreg      void 
  5967 ;; Registers used:
  5968 ;;		wreg, fsr0l, fsr0h, status,2, status,0, pclath, cstack
  5969 ;; Tracked objects:
  5970 ;;		On entry : 0/0
  5971 ;;		On exit  : 0/0
  5972 ;;		Unchanged: 0/0
  5973 ;; Data sizes:     COMMON   BANK0   BANK1   BANK3   BANK2
  5974 ;;      Params:         0       0       0       0       0
  5975 ;;      Locals:         0       0       0       0       0
  5976 ;;      Temps:          0       0       0       0       0
  5977 ;;      Totals:         0       0       0       0       0
  5978 ;;Total ram usage:        0 bytes
  5979 ;; Hardware stack levels used:    1
  5980 ;; Hardware stack levels required when called:    4
  5981 ;; This function calls:
  5982 ;;		_Data_3Digit_Num_Disp_LCD
  5983 ;;		_Goto_XY_LCD_Disp
  5984 ;; This function is called by:
  5985 ;;		_Traffic_Fsm
  5986 ;;		_Startup_E_Go_Fsm_Proc
  5987 ;; This function uses a non-reentrant model
  5988 ;;
  5989                           
  5990                           
  5991                           ;psect for function _E_Go_Fsm_Proc
  5992  0839                     _E_Go_Fsm_Proc:	
  5993                           
  5994                           ;timer13.c: 682: PORTA = 0x14;
  5995                           
  5996                           ;incstack = 0
  5997                           ; Regs used in _E_Go_Fsm_Proc: [wreg-fsr0h+status,2+status,0+pclath+cstack]
  5998  0839  3014               	movlw	20
  5999  083A  1283               	bcf	3,5	;RP0=0, select bank0
  6000  083B  1303               	bcf	3,6	;RP1=0, select bank0
  6001  083C  0085               	movwf	5	;volatile
  6002                           
  6003                           ;timer13.c: 683: PORTC = 0x11;
  6004  083D  3011               	movlw	17
  6005  083E  0087               	movwf	7	;volatile
  6006                           
  6007                           ;timer13.c: 686: Goto_XY_LCD_Disp((1u), (15U));
  6008  083F  3001               	movlw	1
  6009  0840  00F4               	movwf	Goto_XY_LCD_Disp@line_num
  6010  0841  3000               	movlw	0
  6011  0842  00F5               	movwf	Goto_XY_LCD_Disp@line_num+1
  6012  0843  300F               	movlw	15
  6013  0844  00F6               	movwf	Goto_XY_LCD_Disp@col_num
  6014  0845  3000               	movlw	0
  6015  0846  00F7               	movwf	Goto_XY_LCD_Disp@col_num+1
  6016  0847  160A  118A  26AD  120A  158A  	fcall	_Goto_XY_LCD_Disp
  6017                           
  6018                           ;timer13.c: 687: Data_3Digit_Num_Disp_LCD(cur_e_green_left_secs);
  6019  084C  1283               	bcf	3,5	;RP0=0, select bank0
  6020  084D  1303               	bcf	3,6	;RP1=0, select bank0
  6021  084E  0837               	movf	_cur_e_green_left_secs+1,w
  6022  084F  00C3               	movwf	Data_3Digit_Num_Disp_LCD@data_int+1
  6023  0850  0836               	movf	_cur_e_green_left_secs,w
  6024  0851  00C2               	movwf	Data_3Digit_Num_Disp_LCD@data_int
  6025  0852  120A  118A  203B  120A  158A  	fcall	_Data_3Digit_Num_Disp_LCD
  6026                           
  6027                           ;timer13.c: 690: Goto_XY_LCD_Disp((2u), (15U));
  6028  0857  3002               	movlw	2
  6029  0858  00F4               	movwf	Goto_XY_LCD_Disp@line_num
  6030  0859  3000               	movlw	0
  6031  085A  00F5               	movwf	Goto_XY_LCD_Disp@line_num+1
  6032  085B  300F               	movlw	15
  6033  085C  00F6               	movwf	Goto_XY_LCD_Disp@col_num
  6034  085D  3000               	movlw	0
  6035  085E  00F7               	movwf	Goto_XY_LCD_Disp@col_num+1
  6036  085F  160A  118A  26AD  120A  158A  	fcall	_Goto_XY_LCD_Disp
  6037                           
  6038                           ;timer13.c: 691: Data_3Digit_Num_Disp_LCD(cur_w_red_left_secs);
  6039  0864  1283               	bcf	3,5	;RP0=0, select bank0
  6040  0865  1303               	bcf	3,6	;RP1=0, select bank0
  6041  0866  0833               	movf	_cur_w_red_left_secs+1,w
  6042  0867  00C3               	movwf	Data_3Digit_Num_Disp_LCD@data_int+1
  6043  0868  0832               	movf	_cur_w_red_left_secs,w
  6044  0869  00C2               	movwf	Data_3Digit_Num_Disp_LCD@data_int
  6045  086A  120A  118A  203B  120A  158A  	fcall	_Data_3Digit_Num_Disp_LCD
  6046                           
  6047                           ;timer13.c: 694: Goto_XY_LCD_Disp((3u), (15U));
  6048  086F  3003               	movlw	3
  6049  0870  00F4               	movwf	Goto_XY_LCD_Disp@line_num
  6050  0871  3000               	movlw	0
  6051  0872  00F5               	movwf	Goto_XY_LCD_Disp@line_num+1
  6052  0873  300F               	movlw	15
  6053  0874  00F6               	movwf	Goto_XY_LCD_Disp@col_num
  6054  0875  3000               	movlw	0
  6055  0876  00F7               	movwf	Goto_XY_LCD_Disp@col_num+1
  6056  0877  160A  118A  26AD  120A  158A  	fcall	_Goto_XY_LCD_Disp
  6057                           
  6058                           ;timer13.c: 695: Data_3Digit_Num_Disp_LCD(cur_n_red_left_secs);
  6059  087C  1283               	bcf	3,5	;RP0=0, select bank0
  6060  087D  1303               	bcf	3,6	;RP1=0, select bank0
  6061  087E  082B               	movf	_cur_n_red_left_secs+1,w
  6062  087F  00C3               	movwf	Data_3Digit_Num_Disp_LCD@data_int+1
  6063  0880  082A               	movf	_cur_n_red_left_secs,w
  6064  0881  00C2               	movwf	Data_3Digit_Num_Disp_LCD@data_int
  6065  0882  120A  118A  203B  120A  158A  	fcall	_Data_3Digit_Num_Disp_LCD
  6066                           
  6067                           ;timer13.c: 698: Goto_XY_LCD_Disp((4u), (15U));
  6068  0887  3004               	movlw	4
  6069  0888  00F4               	movwf	Goto_XY_LCD_Disp@line_num
  6070  0889  3000               	movlw	0
  6071  088A  00F5               	movwf	Goto_XY_LCD_Disp@line_num+1
  6072  088B  300F               	movlw	15
  6073  088C  00F6               	movwf	Goto_XY_LCD_Disp@col_num
  6074  088D  3000               	movlw	0
  6075  088E  00F7               	movwf	Goto_XY_LCD_Disp@col_num+1
  6076  088F  160A  118A  26AD  120A  158A  	fcall	_Goto_XY_LCD_Disp
  6077                           
  6078                           ;timer13.c: 699: Data_3Digit_Num_Disp_LCD(cur_s_red_left_secs);
  6079  0894  1283               	bcf	3,5	;RP0=0, select bank0
  6080  0895  1303               	bcf	3,6	;RP1=0, select bank0
  6081  0896  0825               	movf	_cur_s_red_left_secs+1,w
  6082  0897  00C3               	movwf	Data_3Digit_Num_Disp_LCD@data_int+1
  6083  0898  0824               	movf	_cur_s_red_left_secs,w
  6084  0899  00C2               	movwf	Data_3Digit_Num_Disp_LCD@data_int
  6085  089A  120A  118A  203B   	fcall	_Data_3Digit_Num_Disp_LCD
  6086  089D  0008               	return
  6087  089E                     __end_of_E_Go_Fsm_Proc:	
  6088                           
  6089                           	psect	text21
  6090  16AD                     __ptext21:	
  6091 ;; *************** function _Goto_XY_LCD_Disp *****************
  6092 ;; Defined at:
  6093 ;;		line 988 in file "timer13.c"
  6094 ;; Parameters:    Size  Location     Type
  6095 ;;  line_num        2    4[COMMON] const unsigned int 
  6096 ;;  col_num         2    6[COMMON] const unsigned int 
  6097 ;; Auto vars:     Size  Location     Type
  6098 ;;  line_lcd        2   10[COMMON] unsigned int 
  6099 ;;  col_lcd         2    8[COMMON] unsigned int 
  6100 ;; Return value:  Size  Location     Type
  6101 ;;                  1    wreg      void 
  6102 ;; Registers used:
  6103 ;;		wreg, status,2, status,0, pclath, cstack
  6104 ;; Tracked objects:
  6105 ;;		On entry : 0/0
  6106 ;;		On exit  : 0/0
  6107 ;;		Unchanged: 0/0
  6108 ;; Data sizes:     COMMON   BANK0   BANK1   BANK3   BANK2
  6109 ;;      Params:         4       0       0       0       0
  6110 ;;      Locals:         4       0       0       0       0
  6111 ;;      Temps:          0       0       0       0       0
  6112 ;;      Totals:         8       0       0       0       0
  6113 ;;Total ram usage:        8 bytes
  6114 ;; Hardware stack levels used:    1
  6115 ;; Hardware stack levels required when called:    3
  6116 ;; This function calls:
  6117 ;;		_Write_LCD_Command
  6118 ;; This function is called by:
  6119 ;;		_Traffic_Fsm
  6120 ;;		_Startup_E_Go_Fsm_Proc
  6121 ;;		_Startup_E_Wait_Fsm_Proc
  6122 ;;		_Startup_W_Go_Fsm_Proc
  6123 ;;		_Startup_W_Wait_Fsm_Proc
  6124 ;;		_Startup_N_Go_Fsm_Proc
  6125 ;;		_Startup_N_Wait_Fsm_Proc
  6126 ;;		_Startup_S_Go_Fsm_Proc
  6127 ;;		_Startup_S_Wait_Fsm_Proc
  6128 ;;		_E_Go_Fsm_Proc
  6129 ;;		_E_Wait_Fsm_Proc
  6130 ;;		_W_Go_Fsm_Proc
  6131 ;;		_W_Wait_Fsm_Proc
  6132 ;;		_N_Go_Fsm_Proc
  6133 ;;		_N_Wait_Fsm_Proc
  6134 ;;		_S_Go_Fsm_Proc
  6135 ;;		_S_Wait_Fsm_Proc
  6136 ;;		_LCD_Const_Disp
  6137 ;; This function uses a non-reentrant model
  6138 ;;
  6139                           
  6140                           
  6141                           ;psect for function _Goto_XY_LCD_Disp
  6142  16AD                     _Goto_XY_LCD_Disp:	
  6143                           
  6144                           ;timer13.c: 990: unsigned int line_lcd = line_num -1, col_lcd = col_num - 1;
  6145                           
  6146                           ;incstack = 0
  6147                           ; Regs used in _Goto_XY_LCD_Disp: [wreg+status,2+status,0+pclath+cstack]
  6148  16AD  0874               	movf	Goto_XY_LCD_Disp@line_num,w
  6149  16AE  3EFF               	addlw	255
  6150  16AF  00FA               	movwf	Goto_XY_LCD_Disp@line_lcd
  6151  16B0  0875               	movf	Goto_XY_LCD_Disp@line_num+1,w
  6152  16B1  1803               	skipnc
  6153  16B2  3E01               	addlw	1
  6154  16B3  3EFF               	addlw	255
  6155  16B4  00FB               	movwf	Goto_XY_LCD_Disp@line_lcd+1
  6156  16B5  0876               	movf	Goto_XY_LCD_Disp@col_num,w
  6157  16B6  3EFF               	addlw	255
  6158  16B7  00F8               	movwf	Goto_XY_LCD_Disp@col_lcd
  6159  16B8  0877               	movf	Goto_XY_LCD_Disp@col_num+1,w
  6160  16B9  1803               	skipnc
  6161  16BA  3E01               	addlw	1
  6162  16BB  3EFF               	addlw	255
  6163  16BC  00F9               	movwf	Goto_XY_LCD_Disp@col_lcd+1
  6164                           
  6165                           ;timer13.c: 991: if(line_lcd < 4 && col_lcd < 20 )
  6166  16BD  3000               	movlw	0
  6167  16BE  027B               	subwf	Goto_XY_LCD_Disp@line_lcd+1,w
  6168  16BF  3004               	movlw	4
  6169  16C0  1903               	skipnz
  6170  16C1  027A               	subwf	Goto_XY_LCD_Disp@line_lcd,w
  6171  16C2  1803               	skipnc
  6172  16C3  0008               	return
  6173  16C4  3000               	movlw	0
  6174  16C5  0279               	subwf	Goto_XY_LCD_Disp@col_lcd+1,w
  6175  16C6  3014               	movlw	20
  6176  16C7  1903               	skipnz
  6177  16C8  0278               	subwf	Goto_XY_LCD_Disp@col_lcd,w
  6178  16C9  1803               	skipnc
  6179  16CA  0008               	return
  6180                           
  6181                           ;timer13.c: 992: {
  6182                           ;timer13.c: 993: cur_disp_lcd_loc = (0X80u);
  6183  16CB  3080               	movlw	128
  6184  16CC  1283               	bcf	3,5	;RP0=0, select bank0
  6185  16CD  1303               	bcf	3,6	;RP1=0, select bank0
  6186  16CE  00EC               	movwf	_cur_disp_lcd_loc
  6187  16CF  3000               	movlw	0
  6188  16D0  00ED               	movwf	_cur_disp_lcd_loc+1
  6189                           
  6190                           ;timer13.c: 994: if( line_lcd& 0x01)
  6191  16D1  1C7A               	btfss	Goto_XY_LCD_Disp@line_lcd,0
  6192  16D2  2ED9               	goto	l1841
  6193                           
  6194                           ;timer13.c: 995: cur_disp_lcd_loc = cur_disp_lcd_loc | (1 << 6);
  6195  16D3  3040               	movlw	64
  6196  16D4  046C               	iorwf	_cur_disp_lcd_loc,w
  6197  16D5  00EC               	movwf	_cur_disp_lcd_loc
  6198  16D6  3000               	movlw	0
  6199  16D7  046D               	iorwf	_cur_disp_lcd_loc+1,w
  6200  16D8  00ED               	movwf	_cur_disp_lcd_loc+1
  6201  16D9                     l1841:	
  6202                           
  6203                           ;timer13.c: 996: if( line_lcd& 0x02)
  6204  16D9  1CFA               	btfss	Goto_XY_LCD_Disp@line_lcd,1
  6205  16DA  2EE7               	goto	l1845
  6206                           
  6207                           ;timer13.c: 997: {
  6208                           ;timer13.c: 998: cur_disp_lcd_loc = cur_disp_lcd_loc | (1 << 2);
  6209  16DB  3004               	movlw	4
  6210  16DC  046C               	iorwf	_cur_disp_lcd_loc,w
  6211  16DD  00EC               	movwf	_cur_disp_lcd_loc
  6212  16DE  3000               	movlw	0
  6213  16DF  046D               	iorwf	_cur_disp_lcd_loc+1,w
  6214  16E0  00ED               	movwf	_cur_disp_lcd_loc+1
  6215                           
  6216                           ;timer13.c: 999: cur_disp_lcd_loc = cur_disp_lcd_loc | (1 << 4);
  6217  16E1  3010               	movlw	16
  6218  16E2  046C               	iorwf	_cur_disp_lcd_loc,w
  6219  16E3  00EC               	movwf	_cur_disp_lcd_loc
  6220  16E4  3000               	movlw	0
  6221  16E5  046D               	iorwf	_cur_disp_lcd_loc+1,w
  6222  16E6  00ED               	movwf	_cur_disp_lcd_loc+1
  6223  16E7                     l1845:	
  6224                           
  6225                           ;timer13.c: 1000: }
  6226                           ;timer13.c: 1001: cur_disp_lcd_loc = cur_disp_lcd_loc + col_lcd;
  6227  16E7  0878               	movf	Goto_XY_LCD_Disp@col_lcd,w
  6228  16E8  076C               	addwf	_cur_disp_lcd_loc,w
  6229  16E9  00EC               	movwf	_cur_disp_lcd_loc
  6230  16EA  0879               	movf	Goto_XY_LCD_Disp@col_lcd+1,w
  6231  16EB  1803               	skipnc
  6232  16EC  0A79               	incf	Goto_XY_LCD_Disp@col_lcd+1,w
  6233  16ED  076D               	addwf	_cur_disp_lcd_loc+1,w
  6234  16EE  00ED               	movwf	_cur_disp_lcd_loc+1
  6235                           
  6236                           ;timer13.c: 1002: Write_LCD_Command(cur_disp_lcd_loc);
  6237  16EF  086D               	movf	_cur_disp_lcd_loc+1,w
  6238  16F0  00F3               	movwf	Write_LCD_Command@cmd+1
  6239  16F1  086C               	movf	_cur_disp_lcd_loc,w
  6240  16F2  00F2               	movwf	Write_LCD_Command@cmd
  6241  16F3  160A  118A  255D   	fcall	_Write_LCD_Command
  6242  16F6  0008               	return
  6243  16F7                     __end_of_Goto_XY_LCD_Disp:	
  6244                           
  6245                           	psect	text22
  6246  003B                     __ptext22:	
  6247 ;; *************** function _Data_3Digit_Num_Disp_LCD *****************
  6248 ;; Defined at:
  6249 ;;		line 959 in file "timer13.c"
  6250 ;; Parameters:    Size  Location     Type
  6251 ;;  data_int        2    0[BANK0 ] const unsigned int 
  6252 ;; Auto vars:     Size  Location     Type
  6253 ;;  num_data       10    6[BANK0 ] unsigned char [10]
  6254 ;;  num             2   22[BANK0 ] unsigned int 
  6255 ;;  unit_digit      2   20[BANK0 ] unsigned int 
  6256 ;;  tens_digit      2   18[BANK0 ] unsigned int 
  6257 ;;  hundreds_dig    2   16[BANK0 ] unsigned int 
  6258 ;; Return value:  Size  Location     Type
  6259 ;;                  1    wreg      void 
  6260 ;; Registers used:
  6261 ;;		wreg, fsr0l, fsr0h, status,2, status,0, pclath, cstack
  6262 ;; Tracked objects:
  6263 ;;		On entry : 0/0
  6264 ;;		On exit  : 0/0
  6265 ;;		Unchanged: 0/0
  6266 ;; Data sizes:     COMMON   BANK0   BANK1   BANK3   BANK2
  6267 ;;      Params:         0       2       0       0       0
  6268 ;;      Locals:         0      18       0       0       0
  6269 ;;      Temps:          0       4       0       0       0
  6270 ;;      Totals:         0      24       0       0       0
  6271 ;;Total ram usage:       24 bytes
  6272 ;; Hardware stack levels used:    1
  6273 ;; Hardware stack levels required when called:    3
  6274 ;; This function calls:
  6275 ;;		_Write_LCD_Data
  6276 ;;		___lldiv
  6277 ;;		___lwdiv
  6278 ;;		___lwmod
  6279 ;; This function is called by:
  6280 ;;		_E_Go_Fsm_Proc
  6281 ;;		_E_Wait_Fsm_Proc
  6282 ;;		_W_Go_Fsm_Proc
  6283 ;;		_W_Wait_Fsm_Proc
  6284 ;;		_N_Go_Fsm_Proc
  6285 ;;		_N_Wait_Fsm_Proc
  6286 ;;		_S_Go_Fsm_Proc
  6287 ;;		_S_Wait_Fsm_Proc
  6288 ;; This function uses a non-reentrant model
  6289 ;;
  6290                           
  6291                           
  6292                           ;psect for function _Data_3Digit_Num_Disp_LCD
  6293  003B                     _Data_3Digit_Num_Disp_LCD:	
  6294                           
  6295                           ;timer13.c: 961: unsigned int hundreds_digit,tens_digit, unit_digit,num;
  6296                           ;timer13.c: 962: char num_data[] ={'0','1','2','3','4','5','6','7','8','9'};
  6297                           
  6298                           ;incstack = 0
  6299                           ; Regs used in _Data_3Digit_Num_Disp_LCD: [wreg-fsr0h+status,2+status,0+pclath+cstack]
  6300  003B  3048               	movlw	Data_3Digit_Num_Disp_LCD@num_data& (0+255)
  6301  003C  0084               	movwf	4
  6302  003D  30AA               	movlw	low Data_3Digit_Num_Disp_LCD@F1749
  6303  003E  1283               	bcf	3,5	;RP0=0, select bank0
  6304  003F  1303               	bcf	3,6	;RP1=0, select bank0
  6305  0040  00C4               	movwf	??_Data_3Digit_Num_Disp_LCD
  6306  0041  0804               	movf	4,w
  6307  0042  00C5               	movwf	??_Data_3Digit_Num_Disp_LCD+1
  6308  0043  300A               	movlw	10
  6309  0044  00C6               	movwf	??_Data_3Digit_Num_Disp_LCD+2
  6310  0045                     u910:	
  6311  0045  0844               	movf	??_Data_3Digit_Num_Disp_LCD,w
  6312  0046  0084               	movwf	4
  6313  0047  1383               	bcf	3,7	;select IRP bank1
  6314  0048  0800               	movf	0,w
  6315  0049  00C7               	movwf	??_Data_3Digit_Num_Disp_LCD+3
  6316  004A  0AC4               	incf	??_Data_3Digit_Num_Disp_LCD,f
  6317  004B  0845               	movf	??_Data_3Digit_Num_Disp_LCD+1,w
  6318  004C  0084               	movwf	4
  6319  004D  0847               	movf	??_Data_3Digit_Num_Disp_LCD+3,w
  6320  004E  0080               	movwf	0
  6321  004F  0AC5               	incf	??_Data_3Digit_Num_Disp_LCD+1,f
  6322  0050  0BC6               	decfsz	??_Data_3Digit_Num_Disp_LCD+2,f
  6323  0051  2845               	goto	u910
  6324                           
  6325                           ;timer13.c: 963: num = data_int % 1000;
  6326  0052  30E8               	movlw	232
  6327  0053  00F0               	movwf	___lwmod@divisor
  6328  0054  3003               	movlw	3
  6329  0055  00F1               	movwf	___lwmod@divisor+1
  6330  0056  0843               	movf	Data_3Digit_Num_Disp_LCD@data_int+1,w
  6331  0057  00F3               	movwf	___lwmod@dividend+1
  6332  0058  0842               	movf	Data_3Digit_Num_Disp_LCD@data_int,w
  6333  0059  00F2               	movwf	___lwmod@dividend
  6334  005A  120A  118A  2009  120A  118A  	fcall	___lwmod
  6335  005F  0871               	movf	?___lwmod+1,w
  6336  0060  1283               	bcf	3,5	;RP0=0, select bank0
  6337  0061  1303               	bcf	3,6	;RP1=0, select bank0
  6338  0062  00D9               	movwf	Data_3Digit_Num_Disp_LCD@num+1
  6339  0063  0870               	movf	?___lwmod,w
  6340  0064  00D8               	movwf	Data_3Digit_Num_Disp_LCD@num
  6341                           
  6342                           ;timer13.c: 964: hundreds_digit = (unsigned int) (num / (unsigned long) (100));
  6343  0065  3000               	movlw	0
  6344  0066  00F3               	movwf	___lldiv@divisor+3
  6345  0067  3000               	movlw	0
  6346  0068  00F2               	movwf	___lldiv@divisor+2
  6347  0069  3000               	movlw	0
  6348  006A  00F1               	movwf	___lldiv@divisor+1
  6349  006B  3064               	movlw	100
  6350  006C  00F0               	movwf	___lldiv@divisor
  6351  006D  0858               	movf	Data_3Digit_Num_Disp_LCD@num,w
  6352  006E  00F4               	movwf	___lldiv@dividend
  6353  006F  0859               	movf	Data_3Digit_Num_Disp_LCD@num+1,w
  6354  0070  00F5               	movwf	___lldiv@dividend+1
  6355  0071  01F6               	clrf	___lldiv@dividend+2
  6356  0072  01F7               	clrf	___lldiv@dividend+3
  6357  0073  160A  118A  27A2  120A  118A  	fcall	___lldiv
  6358  0078  0871               	movf	?___lldiv+1,w
  6359  0079  1283               	bcf	3,5	;RP0=0, select bank0
  6360  007A  1303               	bcf	3,6	;RP1=0, select bank0
  6361  007B  00D3               	movwf	Data_3Digit_Num_Disp_LCD@hundreds_digit+1
  6362  007C  0870               	movf	?___lldiv,w
  6363  007D  00D2               	movwf	Data_3Digit_Num_Disp_LCD@hundreds_digit
  6364                           
  6365                           ;timer13.c: 965: Write_LCD_Data(num_data[hundreds_digit]);
  6366  007E  0852               	movf	Data_3Digit_Num_Disp_LCD@hundreds_digit,w
  6367  007F  3E48               	addlw	(low (Data_3Digit_Num_Disp_LCD@num_data| 0))& (0+255)
  6368  0080  0084               	movwf	4
  6369  0081  1383               	bcf	3,7	;select IRP bank0
  6370  0082  0800               	movf	0,w
  6371  0083  120A  158A  2000  120A  118A  	fcall	_Write_LCD_Data
  6372                           
  6373                           ;timer13.c: 966: num = data_int % 100;
  6374  0088  3064               	movlw	100
  6375  0089  00F0               	movwf	___lwmod@divisor
  6376  008A  3000               	movlw	0
  6377  008B  00F1               	movwf	___lwmod@divisor+1
  6378  008C  1283               	bcf	3,5	;RP0=0, select bank0
  6379  008D  1303               	bcf	3,6	;RP1=0, select bank0
  6380  008E  0843               	movf	Data_3Digit_Num_Disp_LCD@data_int+1,w
  6381  008F  00F3               	movwf	___lwmod@dividend+1
  6382  0090  0842               	movf	Data_3Digit_Num_Disp_LCD@data_int,w
  6383  0091  00F2               	movwf	___lwmod@dividend
  6384  0092  120A  118A  2009  120A  118A  	fcall	___lwmod
  6385  0097  0871               	movf	?___lwmod+1,w
  6386  0098  1283               	bcf	3,5	;RP0=0, select bank0
  6387  0099  1303               	bcf	3,6	;RP1=0, select bank0
  6388  009A  00D9               	movwf	Data_3Digit_Num_Disp_LCD@num+1
  6389  009B  0870               	movf	?___lwmod,w
  6390  009C  00D8               	movwf	Data_3Digit_Num_Disp_LCD@num
  6391                           
  6392                           ;timer13.c: 967: tens_digit = (unsigned int) (num / 10);
  6393  009D  300A               	movlw	10
  6394  009E  00F0               	movwf	___lwdiv@divisor
  6395  009F  3000               	movlw	0
  6396  00A0  00F1               	movwf	___lwdiv@divisor+1
  6397  00A1  0859               	movf	Data_3Digit_Num_Disp_LCD@num+1,w
  6398  00A2  00F3               	movwf	___lwdiv@dividend+1
  6399  00A3  0858               	movf	Data_3Digit_Num_Disp_LCD@num,w
  6400  00A4  00F2               	movwf	___lwdiv@dividend
  6401  00A5  160A  118A  25F1  120A  118A  	fcall	___lwdiv
  6402  00AA  0871               	movf	?___lwdiv+1,w
  6403  00AB  1283               	bcf	3,5	;RP0=0, select bank0
  6404  00AC  1303               	bcf	3,6	;RP1=0, select bank0
  6405  00AD  00D5               	movwf	Data_3Digit_Num_Disp_LCD@tens_digit+1
  6406  00AE  0870               	movf	?___lwdiv,w
  6407  00AF  00D4               	movwf	Data_3Digit_Num_Disp_LCD@tens_digit
  6408                           
  6409                           ;timer13.c: 968: Write_LCD_Data(num_data[tens_digit]);
  6410  00B0  0854               	movf	Data_3Digit_Num_Disp_LCD@tens_digit,w
  6411  00B1  3E48               	addlw	(low (Data_3Digit_Num_Disp_LCD@num_data| 0))& (0+255)
  6412  00B2  0084               	movwf	4
  6413  00B3  1383               	bcf	3,7	;select IRP bank0
  6414  00B4  0800               	movf	0,w
  6415  00B5  120A  158A  2000  120A  118A  	fcall	_Write_LCD_Data
  6416                           
  6417                           ;timer13.c: 969: unit_digit = (unsigned int) (data_int % 10);
  6418  00BA  300A               	movlw	10
  6419  00BB  00F0               	movwf	___lwmod@divisor
  6420  00BC  3000               	movlw	0
  6421  00BD  00F1               	movwf	___lwmod@divisor+1
  6422  00BE  1283               	bcf	3,5	;RP0=0, select bank0
  6423  00BF  1303               	bcf	3,6	;RP1=0, select bank0
  6424  00C0  0843               	movf	Data_3Digit_Num_Disp_LCD@data_int+1,w
  6425  00C1  00F3               	movwf	___lwmod@dividend+1
  6426  00C2  0842               	movf	Data_3Digit_Num_Disp_LCD@data_int,w
  6427  00C3  00F2               	movwf	___lwmod@dividend
  6428  00C4  120A  118A  2009  120A  118A  	fcall	___lwmod
  6429  00C9  0871               	movf	?___lwmod+1,w
  6430  00CA  1283               	bcf	3,5	;RP0=0, select bank0
  6431  00CB  1303               	bcf	3,6	;RP1=0, select bank0
  6432  00CC  00D7               	movwf	Data_3Digit_Num_Disp_LCD@unit_digit+1
  6433  00CD  0870               	movf	?___lwmod,w
  6434  00CE  00D6               	movwf	Data_3Digit_Num_Disp_LCD@unit_digit
  6435                           
  6436                           ;timer13.c: 970: Write_LCD_Data(num_data[unit_digit]);
  6437  00CF  0856               	movf	Data_3Digit_Num_Disp_LCD@unit_digit,w
  6438  00D0  3E48               	addlw	(low (Data_3Digit_Num_Disp_LCD@num_data| 0))& (0+255)
  6439  00D1  0084               	movwf	4
  6440  00D2  1383               	bcf	3,7	;select IRP bank0
  6441  00D3  0800               	movf	0,w
  6442  00D4  120A  158A  2000   	fcall	_Write_LCD_Data
  6443  00D7  0008               	return
  6444  00D8                     __end_of_Data_3Digit_Num_Disp_LCD:	
  6445                           
  6446                           	psect	text23
  6447  0009                     __ptext23:	
  6448 ;; *************** function ___lwmod *****************
  6449 ;; Defined at:
  6450 ;;		line 6 in file "C:\Program Files (x86)\Microchip\xc8\v1.44\sources\common\lwmod.c"
  6451 ;; Parameters:    Size  Location     Type
  6452 ;;  divisor         2    0[COMMON] unsigned int 
  6453 ;;  dividend        2    2[COMMON] unsigned int 
  6454 ;; Auto vars:     Size  Location     Type
  6455 ;;  counter         1    5[COMMON] unsigned char 
  6456 ;; Return value:  Size  Location     Type
  6457 ;;                  2    0[COMMON] unsigned int 
  6458 ;; Registers used:
  6459 ;;		wreg, status,2, status,0
  6460 ;; Tracked objects:
  6461 ;;		On entry : 0/0
  6462 ;;		On exit  : 0/0
  6463 ;;		Unchanged: 0/0
  6464 ;; Data sizes:     COMMON   BANK0   BANK1   BANK3   BANK2
  6465 ;;      Params:         4       0       0       0       0
  6466 ;;      Locals:         1       0       0       0       0
  6467 ;;      Temps:          1       0       0       0       0
  6468 ;;      Totals:         6       0       0       0       0
  6469 ;;Total ram usage:        6 bytes
  6470 ;; Hardware stack levels used:    1
  6471 ;; This function calls:
  6472 ;;		Nothing
  6473 ;; This function is called by:
  6474 ;;		_Data_3Digit_Num_Disp_LCD
  6475 ;;		_Data_2Digit_Num_Disp
  6476 ;; This function uses a non-reentrant model
  6477 ;;
  6478                           
  6479                           
  6480                           ;psect for function ___lwmod
  6481  0009                     ___lwmod:	
  6482                           
  6483                           ;incstack = 0
  6484                           ; Regs used in ___lwmod: [wreg+status,2+status,0]
  6485  0009  0870               	movf	___lwmod@divisor,w
  6486  000A  0471               	iorwf	___lwmod@divisor+1,w
  6487  000B  1903               	btfsc	3,2
  6488  000C  2836               	goto	l1825
  6489  000D  01F5               	clrf	___lwmod@counter
  6490  000E  0AF5               	incf	___lwmod@counter,f
  6491  000F                     l1815:	
  6492  000F  1BF1               	btfsc	___lwmod@divisor+1,7
  6493  0010  281D               	goto	l1817
  6494  0011  3001               	movlw	1
  6495  0012                     u825:	
  6496  0012  1003               	clrc
  6497  0013  0DF0               	rlf	___lwmod@divisor,f
  6498  0014  0DF1               	rlf	___lwmod@divisor+1,f
  6499  0015  3EFF               	addlw	-1
  6500  0016  1D03               	skipz
  6501  0017  2812               	goto	u825
  6502  0018  3001               	movlw	1
  6503  0019  00F4               	movwf	??___lwmod
  6504  001A  0874               	movf	??___lwmod,w
  6505  001B  07F5               	addwf	___lwmod@counter,f
  6506  001C  280F               	goto	l1815
  6507  001D                     l1817:	
  6508  001D  0871               	movf	___lwmod@divisor+1,w
  6509  001E  0273               	subwf	___lwmod@dividend+1,w
  6510  001F  1D03               	skipz
  6511  0020  2823               	goto	u845
  6512  0021  0870               	movf	___lwmod@divisor,w
  6513  0022  0272               	subwf	___lwmod@dividend,w
  6514  0023                     u845:	
  6515  0023  1C03               	skipc
  6516  0024  282B               	goto	l1821
  6517  0025  0870               	movf	___lwmod@divisor,w
  6518  0026  02F2               	subwf	___lwmod@dividend,f
  6519  0027  0871               	movf	___lwmod@divisor+1,w
  6520  0028  1C03               	skipc
  6521  0029  03F3               	decf	___lwmod@dividend+1,f
  6522  002A  02F3               	subwf	___lwmod@dividend+1,f
  6523  002B                     l1821:	
  6524  002B  3001               	movlw	1
  6525  002C                     u855:	
  6526  002C  1003               	clrc
  6527  002D  0CF1               	rrf	___lwmod@divisor+1,f
  6528  002E  0CF0               	rrf	___lwmod@divisor,f
  6529  002F  3EFF               	addlw	-1
  6530  0030  1D03               	skipz
  6531  0031  282C               	goto	u855
  6532  0032  3001               	movlw	1
  6533  0033  02F5               	subwf	___lwmod@counter,f
  6534  0034  1D03               	btfss	3,2
  6535  0035  281D               	goto	l1817
  6536  0036                     l1825:	
  6537  0036  0873               	movf	___lwmod@dividend+1,w
  6538  0037  00F1               	movwf	?___lwmod+1
  6539  0038  0872               	movf	___lwmod@dividend,w
  6540  0039  00F0               	movwf	?___lwmod
  6541  003A  0008               	return
  6542  003B                     __end_of___lwmod:	
  6543                           
  6544                           	psect	text24
  6545  17A2                     __ptext24:	
  6546 ;; *************** function ___lldiv *****************
  6547 ;; Defined at:
  6548 ;;		line 6 in file "C:\Program Files (x86)\Microchip\xc8\v1.44\sources\common\lldiv.c"
  6549 ;; Parameters:    Size  Location     Type
  6550 ;;  divisor         4    0[COMMON] unsigned long 
  6551 ;;  dividend        4    4[COMMON] unsigned long 
  6552 ;; Auto vars:     Size  Location     Type
  6553 ;;  quotient        4    9[COMMON] unsigned long 
  6554 ;;  counter         1   13[COMMON] unsigned char 
  6555 ;; Return value:  Size  Location     Type
  6556 ;;                  4    0[COMMON] unsigned long 
  6557 ;; Registers used:
  6558 ;;		wreg, status,2, status,0
  6559 ;; Tracked objects:
  6560 ;;		On entry : 0/0
  6561 ;;		On exit  : 0/0
  6562 ;;		Unchanged: 0/0
  6563 ;; Data sizes:     COMMON   BANK0   BANK1   BANK3   BANK2
  6564 ;;      Params:         8       0       0       0       0
  6565 ;;      Locals:         5       0       0       0       0
  6566 ;;      Temps:          1       0       0       0       0
  6567 ;;      Totals:        14       0       0       0       0
  6568 ;;Total ram usage:       14 bytes
  6569 ;; Hardware stack levels used:    1
  6570 ;; This function calls:
  6571 ;;		Nothing
  6572 ;; This function is called by:
  6573 ;;		_Data_3Digit_Num_Disp_LCD
  6574 ;; This function uses a non-reentrant model
  6575 ;;
  6576                           
  6577                           
  6578                           ;psect for function ___lldiv
  6579  17A2                     ___lldiv:	
  6580                           
  6581                           ;incstack = 0
  6582                           ; Regs used in ___lldiv: [wreg+status,2+status,0]
  6583  17A2  3000               	movlw	0
  6584  17A3  00FC               	movwf	___lldiv@quotient+3
  6585  17A4  3000               	movlw	0
  6586  17A5  00FB               	movwf	___lldiv@quotient+2
  6587  17A6  3000               	movlw	0
  6588  17A7  00FA               	movwf	___lldiv@quotient+1
  6589  17A8  3000               	movlw	0
  6590  17A9  00F9               	movwf	___lldiv@quotient
  6591  17AA  0873               	movf	___lldiv@divisor+3,w
  6592  17AB  0472               	iorwf	___lldiv@divisor+2,w
  6593  17AC  0471               	iorwf	___lldiv@divisor+1,w
  6594  17AD  0470               	iorwf	___lldiv@divisor,w
  6595  17AE  1903               	skipnz
  6596  17AF  2FF7               	goto	l1777
  6597  17B0  01FD               	clrf	___lldiv@counter
  6598  17B1  0AFD               	incf	___lldiv@counter,f
  6599  17B2                     l1763:	
  6600  17B2  1BF3               	btfsc	___lldiv@divisor+3,7
  6601  17B3  2FC2               	goto	l1765
  6602  17B4  3001               	movlw	1
  6603  17B5  00F8               	movwf	??___lldiv
  6604  17B6                     u685:	
  6605  17B6  1003               	clrc
  6606  17B7  0DF0               	rlf	___lldiv@divisor,f
  6607  17B8  0DF1               	rlf	___lldiv@divisor+1,f
  6608  17B9  0DF2               	rlf	___lldiv@divisor+2,f
  6609  17BA  0DF3               	rlf	___lldiv@divisor+3,f
  6610  17BB  0BF8               	decfsz	??___lldiv,f
  6611  17BC  2FB6               	goto	u685
  6612  17BD  3001               	movlw	1
  6613  17BE  00F8               	movwf	??___lldiv
  6614  17BF  0878               	movf	??___lldiv,w
  6615  17C0  07FD               	addwf	___lldiv@counter,f
  6616  17C1  2FB2               	goto	l1763
  6617  17C2                     l1765:	
  6618  17C2  3001               	movlw	1
  6619  17C3  00F8               	movwf	??___lldiv
  6620  17C4                     u705:	
  6621  17C4  1003               	clrc
  6622  17C5  0DF9               	rlf	___lldiv@quotient,f
  6623  17C6  0DFA               	rlf	___lldiv@quotient+1,f
  6624  17C7  0DFB               	rlf	___lldiv@quotient+2,f
  6625  17C8  0DFC               	rlf	___lldiv@quotient+3,f
  6626  17C9  0BF8               	decfsz	??___lldiv,f
  6627  17CA  2FC4               	goto	u705
  6628  17CB  0873               	movf	___lldiv@divisor+3,w
  6629  17CC  0277               	subwf	___lldiv@dividend+3,w
  6630  17CD  1D03               	skipz
  6631  17CE  2FD9               	goto	u715
  6632  17CF  0872               	movf	___lldiv@divisor+2,w
  6633  17D0  0276               	subwf	___lldiv@dividend+2,w
  6634  17D1  1D03               	skipz
  6635  17D2  2FD9               	goto	u715
  6636  17D3  0871               	movf	___lldiv@divisor+1,w
  6637  17D4  0275               	subwf	___lldiv@dividend+1,w
  6638  17D5  1D03               	skipz
  6639  17D6  2FD9               	goto	u715
  6640  17D7  0870               	movf	___lldiv@divisor,w
  6641  17D8  0274               	subwf	___lldiv@dividend,w
  6642  17D9                     u715:	
  6643  17D9  1C03               	skipc
  6644  17DA  2FEA               	goto	l1773
  6645  17DB  0870               	movf	___lldiv@divisor,w
  6646  17DC  02F4               	subwf	___lldiv@dividend,f
  6647  17DD  0871               	movf	___lldiv@divisor+1,w
  6648  17DE  1C03               	skipc
  6649  17DF  0F71               	incfsz	___lldiv@divisor+1,w
  6650  17E0  02F5               	subwf	___lldiv@dividend+1,f
  6651  17E1  0872               	movf	___lldiv@divisor+2,w
  6652  17E2  1C03               	skipc
  6653  17E3  0F72               	incfsz	___lldiv@divisor+2,w
  6654  17E4  02F6               	subwf	___lldiv@dividend+2,f
  6655  17E5  0873               	movf	___lldiv@divisor+3,w
  6656  17E6  1C03               	skipc
  6657  17E7  0F73               	incfsz	___lldiv@divisor+3,w
  6658  17E8  02F7               	subwf	___lldiv@dividend+3,f
  6659  17E9  1479               	bsf	___lldiv@quotient,0
  6660  17EA                     l1773:	
  6661  17EA  3001               	movlw	1
  6662  17EB                     u725:	
  6663  17EB  1003               	clrc
  6664  17EC  0CF3               	rrf	___lldiv@divisor+3,f
  6665  17ED  0CF2               	rrf	___lldiv@divisor+2,f
  6666  17EE  0CF1               	rrf	___lldiv@divisor+1,f
  6667  17EF  0CF0               	rrf	___lldiv@divisor,f
  6668  17F0  3EFF               	addlw	-1
  6669  17F1  1D03               	skipz
  6670  17F2  2FEB               	goto	u725
  6671  17F3  3001               	movlw	1
  6672  17F4  02FD               	subwf	___lldiv@counter,f
  6673  17F5  1D03               	btfss	3,2
  6674  17F6  2FC2               	goto	l1765
  6675  17F7                     l1777:	
  6676  17F7  087C               	movf	___lldiv@quotient+3,w
  6677  17F8  00F3               	movwf	?___lldiv+3
  6678  17F9  087B               	movf	___lldiv@quotient+2,w
  6679  17FA  00F2               	movwf	?___lldiv+2
  6680  17FB  087A               	movf	___lldiv@quotient+1,w
  6681  17FC  00F1               	movwf	?___lldiv+1
  6682  17FD  0879               	movf	___lldiv@quotient,w
  6683  17FE  00F0               	movwf	?___lldiv
  6684  17FF  0008               	return
  6685  1800                     __end_of___lldiv:	
  6686                           
  6687                           	psect	text25
  6688  15D5                     __ptext25:	
  6689 ;; *************** function _Data_Str_Disp_LCD *****************
  6690 ;; Defined at:
  6691 ;;		line 952 in file "timer13.c"
  6692 ;; Parameters:    Size  Location     Type
  6693 ;;  char_ptr        1    wreg     PTR const unsigned char 
  6694 ;;		 -> south_disp(2), north_disp(2), west_disp(2), secs_disp(3), 
  6695 ;;		 -> led_on_disp(4), east_disp(2), yellow_disp(9), blank_traffic_disp(2), 
  6696 ;;		 -> red_disp(9), green_disp(9), error_traffic_disp(2), level0_traffic_disp(2), 
  6697 ;;		 -> level1_traffic_disp(2), level2_traffic_disp(2), 
  6698 ;; Auto vars:     Size  Location     Type
  6699 ;;  char_ptr        1    4[COMMON] PTR const unsigned char 
  6700 ;;		 -> south_disp(2), north_disp(2), west_disp(2), secs_disp(3), 
  6701 ;;		 -> led_on_disp(4), east_disp(2), yellow_disp(9), blank_traffic_disp(2), 
  6702 ;;		 -> red_disp(9), green_disp(9), error_traffic_disp(2), level0_traffic_disp(2), 
  6703 ;;		 -> level1_traffic_disp(2), level2_traffic_disp(2), 
  6704 ;; Return value:  Size  Location     Type
  6705 ;;                  1    wreg      void 
  6706 ;; Registers used:
  6707 ;;		wreg, fsr0l, fsr0h, status,2, status,0, pclath, cstack
  6708 ;; Tracked objects:
  6709 ;;		On entry : 0/0
  6710 ;;		On exit  : 0/0
  6711 ;;		Unchanged: 0/0
  6712 ;; Data sizes:     COMMON   BANK0   BANK1   BANK3   BANK2
  6713 ;;      Params:         0       0       0       0       0
  6714 ;;      Locals:         1       0       0       0       0
  6715 ;;      Temps:          1       0       0       0       0
  6716 ;;      Totals:         2       0       0       0       0
  6717 ;;Total ram usage:        2 bytes
  6718 ;; Hardware stack levels used:    1
  6719 ;; Hardware stack levels required when called:    3
  6720 ;; This function calls:
  6721 ;;		_Write_LCD_Data
  6722 ;; This function is called by:
  6723 ;;		_Traffic_Fsm
  6724 ;;		_Startup_E_Go_Fsm_Proc
  6725 ;;		_Startup_E_Wait_Fsm_Proc
  6726 ;;		_Startup_W_Go_Fsm_Proc
  6727 ;;		_Startup_W_Wait_Fsm_Proc
  6728 ;;		_Startup_N_Go_Fsm_Proc
  6729 ;;		_Startup_N_Wait_Fsm_Proc
  6730 ;;		_Startup_S_Go_Fsm_Proc
  6731 ;;		_Startup_S_Wait_Fsm_Proc
  6732 ;;		_LCD_Const_Disp
  6733 ;; This function uses a non-reentrant model
  6734 ;;
  6735                           
  6736                           
  6737                           ;psect for function _Data_Str_Disp_LCD
  6738  15D5                     _Data_Str_Disp_LCD:	
  6739                           
  6740                           ;incstack = 0
  6741                           ; Regs used in _Data_Str_Disp_LCD: [wreg-fsr0h+status,2+status,0+pclath+cstack]
  6742                           ;Data_Str_Disp_LCD@char_ptr stored from wreg
  6743  15D5  00F4               	movwf	Data_Str_Disp_LCD@char_ptr
  6744  15D6                     l1891:	
  6745                           ;timer13.c: 954: while(*char_ptr)
  6746                           
  6747  15D6  0874               	movf	Data_Str_Disp_LCD@char_ptr,w
  6748  15D7  0084               	movwf	4
  6749  15D8  160A  118A  2000  160A  118A  	fcall	stringdir
  6750  15DD  3A00               	xorlw	0
  6751  15DE  1903               	btfsc	3,2
  6752  15DF  0008               	return
  6753                           
  6754                           ;timer13.c: 955: {
  6755                           ;timer13.c: 956: Write_LCD_Data(*(char_ptr++));
  6756  15E0  0874               	movf	Data_Str_Disp_LCD@char_ptr,w
  6757  15E1  0084               	movwf	4
  6758  15E2  160A  118A  2000  160A  118A  	fcall	stringdir
  6759  15E7  120A  158A  2000  160A  118A  	fcall	_Write_LCD_Data
  6760  15EC  3001               	movlw	1
  6761  15ED  00F3               	movwf	??_Data_Str_Disp_LCD
  6762  15EE  0873               	movf	??_Data_Str_Disp_LCD,w
  6763  15EF  07F4               	addwf	Data_Str_Disp_LCD@char_ptr,f
  6764  15F0  2DD6               	goto	l1891
  6765  15F1                     __end_of_Data_Str_Disp_LCD:	
  6766                           
  6767                           	psect	text26
  6768  0800                     __ptext26:	
  6769 ;; *************** function _Write_LCD_Data *****************
  6770 ;; Defined at:
  6771 ;;		line 945 in file "timer13.c"
  6772 ;; Parameters:    Size  Location     Type
  6773 ;;  ch              1    wreg     const unsigned char 
  6774 ;; Auto vars:     Size  Location     Type
  6775 ;;  ch              1    2[COMMON] const unsigned char 
  6776 ;; Return value:  Size  Location     Type
  6777 ;;                  1    wreg      void 
  6778 ;; Registers used:
  6779 ;;		wreg, status,2, status,0, pclath, cstack
  6780 ;; Tracked objects:
  6781 ;;		On entry : 0/0
  6782 ;;		On exit  : 0/0
  6783 ;;		Unchanged: 0/0
  6784 ;; Data sizes:     COMMON   BANK0   BANK1   BANK3   BANK2
  6785 ;;      Params:         0       0       0       0       0
  6786 ;;      Locals:         1       0       0       0       0
  6787 ;;      Temps:          0       0       0       0       0
  6788 ;;      Totals:         1       0       0       0       0
  6789 ;;Total ram usage:        1 bytes
  6790 ;; Hardware stack levels used:    1
  6791 ;; Hardware stack levels required when called:    2
  6792 ;; This function calls:
  6793 ;;		_LCD_Pulse
  6794 ;; This function is called by:
  6795 ;;		_Data_Str_Disp_LCD
  6796 ;;		_Data_3Digit_Num_Disp_LCD
  6797 ;;		_Data_2Digit_Num_Disp
  6798 ;; This function uses a non-reentrant model
  6799 ;;
  6800                           
  6801                           
  6802                           ;psect for function _Write_LCD_Data
  6803  0800                     _Write_LCD_Data:	
  6804                           
  6805                           ;incstack = 0
  6806                           ; Regs used in _Write_LCD_Data: [wreg+status,2+status,0+pclath+cstack]
  6807                           ;Write_LCD_Data@ch stored from wreg
  6808  0800  00F2               	movwf	Write_LCD_Data@ch
  6809                           
  6810                           ;timer13.c: 947: RE1 = 0;
  6811  0801  1283               	bcf	3,5	;RP0=0, select bank0
  6812  0802  1303               	bcf	3,6	;RP1=0, select bank0
  6813  0803  1089               	bcf	9,1	;volatile
  6814                           
  6815                           ;timer13.c: 948: RE0 = 1;
  6816  0804  1409               	bsf	9,0	;volatile
  6817                           
  6818                           ;timer13.c: 949: PORTD =ch;
  6819  0805  0872               	movf	Write_LCD_Data@ch,w
  6820  0806  0088               	movwf	8	;volatile
  6821                           
  6822                           ;timer13.c: 950: LCD_Pulse();
  6823  0807  160A  118A  25A7   	fcall	_LCD_Pulse
  6824  080A  0008               	return
  6825  080B                     __end_of_Write_LCD_Data:	
  6826                           
  6827                           	psect	text27
  6828  080B                     __ptext27:	
  6829 ;; *************** function _Run_Timer1 *****************
  6830 ;; Defined at:
  6831 ;;		line 884 in file "timer13.c"
  6832 ;; Parameters:    Size  Location     Type
  6833 ;;		None
  6834 ;; Auto vars:     Size  Location     Type
  6835 ;;		None
  6836 ;; Return value:  Size  Location     Type
  6837 ;;                  1    wreg      void 
  6838 ;; Registers used:
  6839 ;;		wreg, status,2, status,0, pclath, cstack
  6840 ;; Tracked objects:
  6841 ;;		On entry : 0/0
  6842 ;;		On exit  : 0/0
  6843 ;;		Unchanged: 0/0
  6844 ;; Data sizes:     COMMON   BANK0   BANK1   BANK3   BANK2
  6845 ;;      Params:         0       0       0       0       0
  6846 ;;      Locals:         0       0       0       0       0
  6847 ;;      Temps:          2       0       0       0       0
  6848 ;;      Totals:         2       0       0       0       0
  6849 ;;Total ram usage:        2 bytes
  6850 ;; Hardware stack levels used:    1
  6851 ;; Hardware stack levels required when called:    1
  6852 ;; This function calls:
  6853 ;;		_Prescale_Timer1_Calc
  6854 ;;		___lwdiv
  6855 ;; This function is called by:
  6856 ;;		_main
  6857 ;; This function uses a non-reentrant model
  6858 ;;
  6859                           
  6860                           
  6861                           ;psect for function _Run_Timer1
  6862  080B                     _Run_Timer1:	
  6863                           
  6864                           ;timer13.c: 887: T1CON =0x85;
  6865                           
  6866                           ;incstack = 0
  6867                           ; Regs used in _Run_Timer1: [wreg+status,2+status,0+pclath+cstack]
  6868  080B  3085               	movlw	133
  6869  080C  1283               	bcf	3,5	;RP0=0, select bank0
  6870  080D  1303               	bcf	3,6	;RP1=0, select bank0
  6871  080E  0090               	movwf	16	;volatile
  6872                           
  6873                           ;timer13.c: 888: prescale_timer1 = 0x01;
  6874  080F  3001               	movlw	1
  6875  0810  00EE               	movwf	_prescale_timer1
  6876  0811  3000               	movlw	0
  6877  0812  00EF               	movwf	_prescale_timer1+1
  6878                           
  6879                           ;timer13.c: 889: prescale_shift= 0;
  6880  0813  01C0               	clrf	_prescale_shift
  6881  0814  01C1               	clrf	_prescale_shift+1
  6882                           
  6883                           ;timer13.c: 890: Prescale_Timer1_Calc();
  6884  0815  160A  118A  25BE  120A  158A  	fcall	_Prescale_Timer1_Calc
  6885                           
  6886                           ;timer13.c: 891: timer1_init = 65536ul - ((unsigned int)((unsigned long)((4000000UL) * (
      +                          50UL)) / (unsigned long)((4) * (1000UL)))/prescale_timer1);
  6887  081A  1283               	bcf	3,5	;RP0=0, select bank0
  6888  081B  1303               	bcf	3,6	;RP1=0, select bank0
  6889  081C  086F               	movf	_prescale_timer1+1,w
  6890  081D  00F1               	movwf	___lwdiv@divisor+1
  6891  081E  086E               	movf	_prescale_timer1,w
  6892  081F  00F0               	movwf	___lwdiv@divisor
  6893  0820  3050               	movlw	80
  6894  0821  00F2               	movwf	___lwdiv@dividend
  6895  0822  30C3               	movlw	195
  6896  0823  00F3               	movwf	___lwdiv@dividend+1
  6897  0824  160A  118A  25F1   	fcall	___lwdiv
  6898  0827  0970               	comf	?___lwdiv,w
  6899  0828  00F8               	movwf	??_Run_Timer1
  6900  0829  0971               	comf	?___lwdiv+1,w
  6901  082A  00F9               	movwf	??_Run_Timer1+1
  6902  082B  0AF8               	incf	??_Run_Timer1,f
  6903  082C  1903               	skipnz
  6904  082D  0AF9               	incf	??_Run_Timer1+1,f
  6905  082E  0878               	movf	??_Run_Timer1,w
  6906  082F  1283               	bcf	3,5	;RP0=0, select bank0
  6907  0830  1303               	bcf	3,6	;RP1=0, select bank0
  6908  0831  00BC               	movwf	_timer1_init
  6909  0832  0879               	movf	??_Run_Timer1+1,w
  6910  0833  00BD               	movwf	_timer1_init+1
  6911                           
  6912                           ;timer13.c: 892: TMR1H = timer1_init / 256ul;
  6913  0834  083D               	movf	_timer1_init+1,w
  6914  0835  008F               	movwf	15	;volatile
  6915                           
  6916                           ;timer13.c: 893: TMR1L = timer1_init % 256ul;
  6917  0836  083C               	movf	_timer1_init,w
  6918  0837  008E               	movwf	14	;volatile
  6919  0838  0008               	return
  6920  0839                     __end_of_Run_Timer1:	
  6921                           
  6922                           	psect	text28
  6923  15F1                     __ptext28:	
  6924 ;; *************** function ___lwdiv *****************
  6925 ;; Defined at:
  6926 ;;		line 6 in file "C:\Program Files (x86)\Microchip\xc8\v1.44\sources\common\lwdiv.c"
  6927 ;; Parameters:    Size  Location     Type
  6928 ;;  divisor         2    0[COMMON] unsigned int 
  6929 ;;  dividend        2    2[COMMON] unsigned int 
  6930 ;; Auto vars:     Size  Location     Type
  6931 ;;  quotient        2    5[COMMON] unsigned int 
  6932 ;;  counter         1    7[COMMON] unsigned char 
  6933 ;; Return value:  Size  Location     Type
  6934 ;;                  2    0[COMMON] unsigned int 
  6935 ;; Registers used:
  6936 ;;		wreg, status,2, status,0
  6937 ;; Tracked objects:
  6938 ;;		On entry : 0/0
  6939 ;;		On exit  : 0/0
  6940 ;;		Unchanged: 0/0
  6941 ;; Data sizes:     COMMON   BANK0   BANK1   BANK3   BANK2
  6942 ;;      Params:         4       0       0       0       0
  6943 ;;      Locals:         3       0       0       0       0
  6944 ;;      Temps:          1       0       0       0       0
  6945 ;;      Totals:         8       0       0       0       0
  6946 ;;Total ram usage:        8 bytes
  6947 ;; Hardware stack levels used:    1
  6948 ;; This function calls:
  6949 ;;		Nothing
  6950 ;; This function is called by:
  6951 ;;		_Run_Timer1
  6952 ;;		_Timer1_Tick
  6953 ;;		_Data_3Digit_Num_Disp_LCD
  6954 ;;		_Data_2Digit_Num_Disp
  6955 ;; This function uses a non-reentrant model
  6956 ;;
  6957                           
  6958                           
  6959                           ;psect for function ___lwdiv
  6960  15F1                     ___lwdiv:	
  6961                           
  6962                           ;incstack = 0
  6963                           ; Regs used in ___lwdiv: [wreg+status,2+status,0]
  6964  15F1  01F5               	clrf	___lwdiv@quotient
  6965  15F2  01F6               	clrf	___lwdiv@quotient+1
  6966  15F3  0870               	movf	___lwdiv@divisor,w
  6967  15F4  0471               	iorwf	___lwdiv@divisor+1,w
  6968  15F5  1903               	btfsc	3,2
  6969  15F6  2E28               	goto	l1803
  6970  15F7  01F7               	clrf	___lwdiv@counter
  6971  15F8  0AF7               	incf	___lwdiv@counter,f
  6972  15F9                     l1791:	
  6973  15F9  1BF1               	btfsc	___lwdiv@divisor+1,7
  6974  15FA  2E07               	goto	l1793
  6975  15FB  3001               	movlw	1
  6976  15FC                     u755:	
  6977  15FC  1003               	clrc
  6978  15FD  0DF0               	rlf	___lwdiv@divisor,f
  6979  15FE  0DF1               	rlf	___lwdiv@divisor+1,f
  6980  15FF  3EFF               	addlw	-1
  6981  1600  1D03               	skipz
  6982  1601  2DFC               	goto	u755
  6983  1602  3001               	movlw	1
  6984  1603  00F4               	movwf	??___lwdiv
  6985  1604  0874               	movf	??___lwdiv,w
  6986  1605  07F7               	addwf	___lwdiv@counter,f
  6987  1606  2DF9               	goto	l1791
  6988  1607                     l1793:	
  6989  1607  3001               	movlw	1
  6990  1608                     u775:	
  6991  1608  1003               	clrc
  6992  1609  0DF5               	rlf	___lwdiv@quotient,f
  6993  160A  0DF6               	rlf	___lwdiv@quotient+1,f
  6994  160B  3EFF               	addlw	-1
  6995  160C  1D03               	skipz
  6996  160D  2E08               	goto	u775
  6997  160E  0871               	movf	___lwdiv@divisor+1,w
  6998  160F  0273               	subwf	___lwdiv@dividend+1,w
  6999  1610  1D03               	skipz
  7000  1611  2E14               	goto	u785
  7001  1612  0870               	movf	___lwdiv@divisor,w
  7002  1613  0272               	subwf	___lwdiv@dividend,w
  7003  1614                     u785:	
  7004  1614  1C03               	skipc
  7005  1615  2E1D               	goto	l1799
  7006  1616  0870               	movf	___lwdiv@divisor,w
  7007  1617  02F2               	subwf	___lwdiv@dividend,f
  7008  1618  0871               	movf	___lwdiv@divisor+1,w
  7009  1619  1C03               	skipc
  7010  161A  03F3               	decf	___lwdiv@dividend+1,f
  7011  161B  02F3               	subwf	___lwdiv@dividend+1,f
  7012  161C  1475               	bsf	___lwdiv@quotient,0
  7013  161D                     l1799:	
  7014  161D  3001               	movlw	1
  7015  161E                     u795:	
  7016  161E  1003               	clrc
  7017  161F  0CF1               	rrf	___lwdiv@divisor+1,f
  7018  1620  0CF0               	rrf	___lwdiv@divisor,f
  7019  1621  3EFF               	addlw	-1
  7020  1622  1D03               	skipz
  7021  1623  2E1E               	goto	u795
  7022  1624  3001               	movlw	1
  7023  1625  02F7               	subwf	___lwdiv@counter,f
  7024  1626  1D03               	btfss	3,2
  7025  1627  2E07               	goto	l1793
  7026  1628                     l1803:	
  7027  1628  0876               	movf	___lwdiv@quotient+1,w
  7028  1629  00F1               	movwf	?___lwdiv+1
  7029  162A  0875               	movf	___lwdiv@quotient,w
  7030  162B  00F0               	movwf	?___lwdiv
  7031  162C  0008               	return
  7032  162D                     __end_of___lwdiv:	
  7033                           
  7034                           	psect	text29
  7035  15BE                     __ptext29:	
  7036 ;; *************** function _Prescale_Timer1_Calc *****************
  7037 ;; Defined at:
  7038 ;;		line 908 in file "timer13.c"
  7039 ;; Parameters:    Size  Location     Type
  7040 ;;		None
  7041 ;; Auto vars:     Size  Location     Type
  7042 ;;		None
  7043 ;; Return value:  Size  Location     Type
  7044 ;;                  1    wreg      void 
  7045 ;; Registers used:
  7046 ;;		wreg, status,2, status,0
  7047 ;; Tracked objects:
  7048 ;;		On entry : 0/0
  7049 ;;		On exit  : 0/0
  7050 ;;		Unchanged: 0/0
  7051 ;; Data sizes:     COMMON   BANK0   BANK1   BANK3   BANK2
  7052 ;;      Params:         0       0       0       0       0
  7053 ;;      Locals:         0       0       0       0       0
  7054 ;;      Temps:          3       0       0       0       0
  7055 ;;      Totals:         3       0       0       0       0
  7056 ;;Total ram usage:        3 bytes
  7057 ;; Hardware stack levels used:    1
  7058 ;; This function calls:
  7059 ;;		Nothing
  7060 ;; This function is called by:
  7061 ;;		_Run_Timer1
  7062 ;; This function uses a non-reentrant model
  7063 ;;
  7064                           
  7065                           
  7066                           ;psect for function _Prescale_Timer1_Calc
  7067  15BE                     _Prescale_Timer1_Calc:	
  7068                           
  7069                           ;timer13.c: 910: if(T1CKPS0 == 1)
  7070                           
  7071                           ;incstack = 0
  7072                           ; Regs used in _Prescale_Timer1_Calc: [wreg+status,2+status,0]
  7073  15BE  1283               	bcf	3,5	;RP0=0, select bank0
  7074  15BF  1303               	bcf	3,6	;RP1=0, select bank0
  7075  15C0  1A10               	btfsc	16,4	;volatile
  7076                           
  7077                           ;timer13.c: 911: {
  7078                           ;timer13.c: 912: prescale_shift |= 0x01;
  7079  15C1  1440               	bsf	_prescale_shift,0
  7080                           
  7081                           ;timer13.c: 913: }
  7082                           ;timer13.c: 914: if(T1CKPS1 == 1)
  7083  15C2  1A90               	btfsc	16,5	;volatile
  7084                           
  7085                           ;timer13.c: 915: {
  7086                           ;timer13.c: 916: prescale_shift |= 0x02;
  7087  15C3  14C0               	bsf	_prescale_shift,1
  7088                           
  7089                           ;timer13.c: 917: }
  7090                           ;timer13.c: 918: prescale_timer1 = prescale_timer1 << prescale_shift;
  7091  15C4  0A40               	incf	_prescale_shift,w
  7092  15C5  00F0               	movwf	??_Prescale_Timer1_Calc
  7093  15C6  086F               	movf	_prescale_timer1+1,w
  7094  15C7  00F2               	movwf	??_Prescale_Timer1_Calc+2
  7095  15C8  086E               	movf	_prescale_timer1,w
  7096  15C9  00F1               	movwf	??_Prescale_Timer1_Calc+1
  7097  15CA  2DCE               	goto	u1274
  7098  15CB                     u1275:	
  7099  15CB  1003               	clrc
  7100  15CC  0DF1               	rlf	??_Prescale_Timer1_Calc+1,f
  7101  15CD  0DF2               	rlf	??_Prescale_Timer1_Calc+2,f
  7102  15CE                     u1274:	
  7103  15CE  0BF0               	decfsz	??_Prescale_Timer1_Calc,f
  7104  15CF  2DCB               	goto	u1275
  7105  15D0  0871               	movf	??_Prescale_Timer1_Calc+1,w
  7106  15D1  00EE               	movwf	_prescale_timer1
  7107  15D2  0872               	movf	??_Prescale_Timer1_Calc+2,w
  7108  15D3  00EF               	movwf	_prescale_timer1+1
  7109  15D4  0008               	return
  7110  15D5                     __end_of_Prescale_Timer1_Calc:	
  7111                           
  7112                           	psect	text30
  7113  162D                     __ptext30:	
  7114 ;; *************** function _LCD_Init *****************
  7115 ;; Defined at:
  7116 ;;		line 920 in file "timer13.c"
  7117 ;; Parameters:    Size  Location     Type
  7118 ;;		None
  7119 ;; Auto vars:     Size  Location     Type
  7120 ;;		None
  7121 ;; Return value:  Size  Location     Type
  7122 ;;                  1    wreg      void 
  7123 ;; Registers used:
  7124 ;;		wreg, status,2, status,0, pclath, cstack
  7125 ;; Tracked objects:
  7126 ;;		On entry : 0/0
  7127 ;;		On exit  : 0/0
  7128 ;;		Unchanged: 0/0
  7129 ;; Data sizes:     COMMON   BANK0   BANK1   BANK3   BANK2
  7130 ;;      Params:         0       0       0       0       0
  7131 ;;      Locals:         0       0       0       0       0
  7132 ;;      Temps:          0       0       0       0       0
  7133 ;;      Totals:         0       0       0       0       0
  7134 ;;Total ram usage:        0 bytes
  7135 ;; Hardware stack levels used:    1
  7136 ;; Hardware stack levels required when called:    3
  7137 ;; This function calls:
  7138 ;;		_Write_LCD_Command
  7139 ;; This function is called by:
  7140 ;;		_main
  7141 ;; This function uses a non-reentrant model
  7142 ;;
  7143                           
  7144                           
  7145                           ;psect for function _LCD_Init
  7146  162D                     _LCD_Init:	
  7147                           
  7148                           ;timer13.c: 922: Write_LCD_Command(0x30);
  7149                           
  7150                           ;incstack = 0
  7151                           ; Regs used in _LCD_Init: [wreg+status,2+status,0+pclath+cstack]
  7152  162D  3030               	movlw	48
  7153  162E  00F2               	movwf	Write_LCD_Command@cmd
  7154  162F  3000               	movlw	0
  7155  1630  00F3               	movwf	Write_LCD_Command@cmd+1
  7156  1631  160A  118A  255D  160A  118A  	fcall	_Write_LCD_Command
  7157                           
  7158                           ;timer13.c: 923: Write_LCD_Command(0x30);
  7159  1636  3030               	movlw	48
  7160  1637  00F2               	movwf	Write_LCD_Command@cmd
  7161  1638  3000               	movlw	0
  7162  1639  00F3               	movwf	Write_LCD_Command@cmd+1
  7163  163A  160A  118A  255D  160A  118A  	fcall	_Write_LCD_Command
  7164                           
  7165                           ;timer13.c: 924: Write_LCD_Command(0x30);
  7166  163F  3030               	movlw	48
  7167  1640  00F2               	movwf	Write_LCD_Command@cmd
  7168  1641  3000               	movlw	0
  7169  1642  00F3               	movwf	Write_LCD_Command@cmd+1
  7170  1643  160A  118A  255D  160A  118A  	fcall	_Write_LCD_Command
  7171                           
  7172                           ;timer13.c: 925: Write_LCD_Command(0x38);
  7173  1648  3038               	movlw	56
  7174  1649  00F2               	movwf	Write_LCD_Command@cmd
  7175  164A  3000               	movlw	0
  7176  164B  00F3               	movwf	Write_LCD_Command@cmd+1
  7177  164C  160A  118A  255D  160A  118A  	fcall	_Write_LCD_Command
  7178                           
  7179                           ;timer13.c: 926: Write_LCD_Command(0x01);
  7180  1651  3001               	movlw	1
  7181  1652  00F2               	movwf	Write_LCD_Command@cmd
  7182  1653  3000               	movlw	0
  7183  1654  00F3               	movwf	Write_LCD_Command@cmd+1
  7184  1655  160A  118A  255D  160A  118A  	fcall	_Write_LCD_Command
  7185                           
  7186                           ;timer13.c: 927: Write_LCD_Command(0x0C);
  7187  165A  300C               	movlw	12
  7188  165B  00F2               	movwf	Write_LCD_Command@cmd
  7189  165C  3000               	movlw	0
  7190  165D  00F3               	movwf	Write_LCD_Command@cmd+1
  7191  165E  160A  118A  255D  160A  118A  	fcall	_Write_LCD_Command
  7192                           
  7193                           ;timer13.c: 928: Write_LCD_Command(0x06);
  7194  1663  3006               	movlw	6
  7195  1664  00F2               	movwf	Write_LCD_Command@cmd
  7196  1665  3000               	movlw	0
  7197  1666  00F3               	movwf	Write_LCD_Command@cmd+1
  7198  1667  160A  118A  255D   	fcall	_Write_LCD_Command
  7199  166A  0008               	return
  7200  166B                     __end_of_LCD_Init:	
  7201                           
  7202                           	psect	text31
  7203  155D                     __ptext31:	
  7204 ;; *************** function _Write_LCD_Command *****************
  7205 ;; Defined at:
  7206 ;;		line 938 in file "timer13.c"
  7207 ;; Parameters:    Size  Location     Type
  7208 ;;  cmd             2    2[COMMON] const unsigned int 
  7209 ;; Auto vars:     Size  Location     Type
  7210 ;;		None
  7211 ;; Return value:  Size  Location     Type
  7212 ;;                  1    wreg      void 
  7213 ;; Registers used:
  7214 ;;		wreg, status,2, status,0, pclath, cstack
  7215 ;; Tracked objects:
  7216 ;;		On entry : 0/0
  7217 ;;		On exit  : 0/0
  7218 ;;		Unchanged: 0/0
  7219 ;; Data sizes:     COMMON   BANK0   BANK1   BANK3   BANK2
  7220 ;;      Params:         2       0       0       0       0
  7221 ;;      Locals:         0       0       0       0       0
  7222 ;;      Temps:          0       0       0       0       0
  7223 ;;      Totals:         2       0       0       0       0
  7224 ;;Total ram usage:        2 bytes
  7225 ;; Hardware stack levels used:    1
  7226 ;; Hardware stack levels required when called:    2
  7227 ;; This function calls:
  7228 ;;		_LCD_Pulse
  7229 ;; This function is called by:
  7230 ;;		_Traffic_Init
  7231 ;;		_LCD_Init
  7232 ;;		_Goto_XY_LCD_Disp
  7233 ;; This function uses a non-reentrant model
  7234 ;;
  7235                           
  7236                           
  7237                           ;psect for function _Write_LCD_Command
  7238  155D                     _Write_LCD_Command:	
  7239                           
  7240                           ;timer13.c: 940: RE1 =0;
  7241                           
  7242                           ;incstack = 0
  7243                           ; Regs used in _Write_LCD_Command: [wreg+status,2+status,0+pclath+cstack]
  7244  155D  1283               	bcf	3,5	;RP0=0, select bank0
  7245  155E  1303               	bcf	3,6	;RP1=0, select bank0
  7246  155F  1089               	bcf	9,1	;volatile
  7247                           
  7248                           ;timer13.c: 941: RE0 = 0;
  7249  1560  1009               	bcf	9,0	;volatile
  7250                           
  7251                           ;timer13.c: 942: PORTD = cmd;
  7252  1561  0872               	movf	Write_LCD_Command@cmd,w
  7253  1562  0088               	movwf	8	;volatile
  7254                           
  7255                           ;timer13.c: 943: LCD_Pulse();
  7256  1563  160A  118A  25A7   	fcall	_LCD_Pulse
  7257  1566  0008               	return
  7258  1567                     __end_of_Write_LCD_Command:	
  7259                           
  7260                           	psect	text32
  7261  15A7                     __ptext32:	
  7262 ;; *************** function _LCD_Pulse *****************
  7263 ;; Defined at:
  7264 ;;		line 931 in file "timer13.c"
  7265 ;; Parameters:    Size  Location     Type
  7266 ;;		None
  7267 ;; Auto vars:     Size  Location     Type
  7268 ;;		None
  7269 ;; Return value:  Size  Location     Type
  7270 ;;                  1    wreg      void 
  7271 ;; Registers used:
  7272 ;;		wreg, status,2, status,0, pclath, cstack
  7273 ;; Tracked objects:
  7274 ;;		On entry : 0/0
  7275 ;;		On exit  : 0/0
  7276 ;;		Unchanged: 0/0
  7277 ;; Data sizes:     COMMON   BANK0   BANK1   BANK3   BANK2
  7278 ;;      Params:         0       0       0       0       0
  7279 ;;      Locals:         0       0       0       0       0
  7280 ;;      Temps:          0       0       0       0       0
  7281 ;;      Totals:         0       0       0       0       0
  7282 ;;Total ram usage:        0 bytes
  7283 ;; Hardware stack levels used:    1
  7284 ;; Hardware stack levels required when called:    1
  7285 ;; This function calls:
  7286 ;;		_delay_time
  7287 ;; This function is called by:
  7288 ;;		_Write_LCD_Command
  7289 ;;		_Write_LCD_Data
  7290 ;; This function uses a non-reentrant model
  7291 ;;
  7292                           
  7293                           
  7294                           ;psect for function _LCD_Pulse
  7295  15A7                     _LCD_Pulse:	
  7296                           
  7297                           ;timer13.c: 933: RE2 = 1;
  7298                           
  7299                           ;incstack = 0
  7300                           ; Regs used in _LCD_Pulse: [wreg+status,2+status,0+pclath+cstack]
  7301  15A7  1283               	bcf	3,5	;RP0=0, select bank0
  7302  15A8  1303               	bcf	3,6	;RP1=0, select bank0
  7303  15A9  1509               	bsf	9,2	;volatile
  7304                           
  7305                           ;timer13.c: 934: delay_time(100);
  7306  15AA  3064               	movlw	100
  7307  15AB  00F0               	movwf	delay_time@time_delay
  7308  15AC  3000               	movlw	0
  7309  15AD  00F1               	movwf	delay_time@time_delay+1
  7310  15AE  160A  118A  2567  160A  118A  	fcall	_delay_time
  7311                           
  7312                           ;timer13.c: 935: RE2 = 0;
  7313  15B3  1283               	bcf	3,5	;RP0=0, select bank0
  7314  15B4  1303               	bcf	3,6	;RP1=0, select bank0
  7315  15B5  1109               	bcf	9,2	;volatile
  7316                           
  7317                           ;timer13.c: 936: delay_time(100);
  7318  15B6  3064               	movlw	100
  7319  15B7  00F0               	movwf	delay_time@time_delay
  7320  15B8  3000               	movlw	0
  7321  15B9  00F1               	movwf	delay_time@time_delay+1
  7322  15BA  160A  118A  2567   	fcall	_delay_time
  7323  15BD  0008               	return
  7324  15BE                     __end_of_LCD_Pulse:	
  7325                           
  7326                           	psect	text33
  7327  1567                     __ptext33:	
  7328 ;; *************** function _delay_time *****************
  7329 ;; Defined at:
  7330 ;;		line 984 in file "timer13.c"
  7331 ;; Parameters:    Size  Location     Type
  7332 ;;  time_delay      2    0[COMMON] unsigned int 
  7333 ;; Auto vars:     Size  Location     Type
  7334 ;;		None
  7335 ;; Return value:  Size  Location     Type
  7336 ;;                  1    wreg      void 
  7337 ;; Registers used:
  7338 ;;		wreg, status,2, status,0
  7339 ;; Tracked objects:
  7340 ;;		On entry : 0/0
  7341 ;;		On exit  : 0/0
  7342 ;;		Unchanged: 0/0
  7343 ;; Data sizes:     COMMON   BANK0   BANK1   BANK3   BANK2
  7344 ;;      Params:         2       0       0       0       0
  7345 ;;      Locals:         0       0       0       0       0
  7346 ;;      Temps:          0       0       0       0       0
  7347 ;;      Totals:         2       0       0       0       0
  7348 ;;Total ram usage:        2 bytes
  7349 ;; Hardware stack levels used:    1
  7350 ;; This function calls:
  7351 ;;		Nothing
  7352 ;; This function is called by:
  7353 ;;		_LCD_Pulse
  7354 ;; This function uses a non-reentrant model
  7355 ;;
  7356                           
  7357                           
  7358                           ;psect for function _delay_time
  7359  1567                     _delay_time:	
  7360  1567                     l1737:	
  7361                           ;timer13.c: 986: while(time_delay--);
  7362                           
  7363                           ;incstack = 0
  7364                           ; Regs used in _delay_time: [wreg+status,2+status,0]
  7365                           
  7366  1567  3001               	movlw	1
  7367  1568  02F0               	subwf	delay_time@time_delay,f
  7368  1569  3000               	movlw	0
  7369  156A  1C03               	skipc
  7370  156B  03F1               	decf	delay_time@time_delay+1,f
  7371  156C  02F1               	subwf	delay_time@time_delay+1,f
  7372  156D  0A70               	incf	delay_time@time_delay,w
  7373  156E  1D03               	skipz
  7374  156F  2D67               	goto	l1737
  7375  1570  0A71               	incf	delay_time@time_delay+1,w
  7376  1571  1903               	btfsc	3,2
  7377  1572  0008               	return
  7378  1573  2D67               	goto	l1737
  7379  1574                     __end_of_delay_time:	
  7380  007E                     btemp	set	126	;btemp
  7381  007E                     wtemp0	set	126


Data Sizes:
    Strings     0
    Constant    64
    Data        34
    BSS         42
    Persistent  0
    Stack       0

Auto Spaces:
    Space          Size  Autos    Used
    COMMON           14     14      14
    BANK0            80     32      80
    BANK1            80      0      28
    BANK3            96      0       0
    BANK2            96      0       0

Pointer List with Targets:

    Data_Str_Disp_LCD@char_ptr	PTR const unsigned char  size(1) Largest target is 9
		 -> south_disp(CODE[2]), north_disp(CODE[2]), west_disp(CODE[2]), secs_disp(CODE[3]), 
		 -> led_on_disp(CODE[4]), east_disp(CODE[2]), yellow_disp(CODE[9]), blank_traffic_disp(CODE[2]), 
		 -> red_disp(CODE[9]), green_disp(CODE[9]), error_traffic_disp(CODE[2]), level0_traffic_disp(CODE[2]), 
		 -> level1_traffic_disp(CODE[2]), level2_traffic_disp(CODE[2]), 


Critical Paths under _main in COMMON

    _LCD_Const_Disp->_Goto_XY_LCD_Disp
    _Goto_XY_LCD_Disp->_Write_LCD_Command
    _Data_3Digit_Num_Disp_LCD->___lldiv
    _Data_Str_Disp_LCD->_Write_LCD_Data
    _Run_Timer1->___lwdiv
    _LCD_Init->_Write_LCD_Command
    _LCD_Pulse->_delay_time

Critical Paths under _main in BANK0

    _main->_Timer1_Tick
    _main->_Traffic_Init
    _Traffic_Init->_Startup_E_Go_Fsm_Proc
    _Traffic_Init->_Startup_N_Go_Fsm_Proc
    _Traffic_Init->_Startup_S_Go_Fsm_Proc
    _Traffic_Init->_Startup_W_Go_Fsm_Proc
    _Traffic_Fsm->_Startup_E_Go_Fsm_Proc
    _Traffic_Fsm->_Startup_N_Go_Fsm_Proc
    _Traffic_Fsm->_Startup_S_Go_Fsm_Proc
    _Traffic_Fsm->_Startup_W_Go_Fsm_Proc
    _W_Wait_Fsm_Proc->_Data_3Digit_Num_Disp_LCD
    _W_Go_Fsm_Proc->_Data_3Digit_Num_Disp_LCD
    _S_Wait_Fsm_Proc->_Data_3Digit_Num_Disp_LCD
    _S_Go_Fsm_Proc->_Data_3Digit_Num_Disp_LCD
    _N_Wait_Fsm_Proc->_Data_3Digit_Num_Disp_LCD
    _N_Go_Fsm_Proc->_Data_3Digit_Num_Disp_LCD
    _E_Wait_Fsm_Proc->_Data_3Digit_Num_Disp_LCD
    _E_Go_Fsm_Proc->_Data_3Digit_Num_Disp_LCD

Critical Paths under _main in BANK1

    None.

Critical Paths under _main in BANK3

    None.

Critical Paths under _main in BANK2

    None.

Call Graph Tables:

 ---------------------------------------------------------------------------------
 (Depth) Function   	        Calls       Base Space   Used Autos Params    Refs
 ---------------------------------------------------------------------------------
 (0) _main                                                 0     0      0  597635
                     _LCD_Const_Disp
                           _LCD_Init
                         _Run_Timer1
                        _Timer1_Tick
                       _Traffic_Init
 ---------------------------------------------------------------------------------
 (1) _Traffic_Init                                         2     0      2  233432
                                             30 BANK0      2     0      2
                     _LCD_Const_Disp
              _Startup_E_Go_Fsm_Proc
            _Startup_E_Wait_Fsm_Proc
              _Startup_N_Go_Fsm_Proc
            _Startup_N_Wait_Fsm_Proc
              _Startup_S_Go_Fsm_Proc
            _Startup_S_Wait_Fsm_Proc
              _Startup_W_Go_Fsm_Proc
            _Startup_W_Wait_Fsm_Proc
                  _Write_LCD_Command
 ---------------------------------------------------------------------------------
 (2) _LCD_Const_Disp                                       0     0      0   12882
                  _Data_Str_Disp_LCD
                   _Goto_XY_LCD_Disp
 ---------------------------------------------------------------------------------
 (1) _Timer1_Tick                                          2     2      0  350108
                                             30 BANK0      2     2      0
                        _Traffic_Fsm
                            ___lwdiv
 ---------------------------------------------------------------------------------
 (2) _Traffic_Fsm                                          0     0      0  349522
                  _Data_Str_Disp_LCD
                      _E_Go_Fsm_Proc
                    _E_Wait_Fsm_Proc
                   _Goto_XY_LCD_Disp
                      _N_Go_Fsm_Proc
                    _N_Wait_Fsm_Proc
                      _S_Go_Fsm_Proc
                    _S_Wait_Fsm_Proc
              _Startup_E_Go_Fsm_Proc
            _Startup_E_Wait_Fsm_Proc
              _Startup_N_Go_Fsm_Proc
            _Startup_N_Wait_Fsm_Proc
              _Startup_S_Go_Fsm_Proc
            _Startup_S_Wait_Fsm_Proc
              _Startup_W_Go_Fsm_Proc
            _Startup_W_Wait_Fsm_Proc
                      _W_Go_Fsm_Proc
                    _W_Wait_Fsm_Proc
 ---------------------------------------------------------------------------------
 (2) _Startup_W_Wait_Fsm_Proc                              4     4      0   27481
                                             24 BANK0      4     4      0
                  _Data_Str_Disp_LCD
                   _Goto_XY_LCD_Disp
                    _W_Wait_Fsm_Proc
 ---------------------------------------------------------------------------------
 (3) _W_Wait_Fsm_Proc                                      0     0      0   14599
           _Data_3Digit_Num_Disp_LCD
                   _Goto_XY_LCD_Disp
 ---------------------------------------------------------------------------------
 (2) _Startup_W_Go_Fsm_Proc                                6     6      0   27481
                                             24 BANK0      6     6      0
                  _Data_Str_Disp_LCD
                   _Goto_XY_LCD_Disp
                      _W_Go_Fsm_Proc
 ---------------------------------------------------------------------------------
 (3) _W_Go_Fsm_Proc                                        0     0      0   14599
           _Data_3Digit_Num_Disp_LCD
                   _Goto_XY_LCD_Disp
 ---------------------------------------------------------------------------------
 (2) _Startup_S_Wait_Fsm_Proc                              4     4      0   27481
                                             24 BANK0      4     4      0
                  _Data_Str_Disp_LCD
                   _Goto_XY_LCD_Disp
                    _S_Wait_Fsm_Proc
 ---------------------------------------------------------------------------------
 (3) _S_Wait_Fsm_Proc                                      0     0      0   14599
           _Data_3Digit_Num_Disp_LCD
                   _Goto_XY_LCD_Disp
 ---------------------------------------------------------------------------------
 (2) _Startup_S_Go_Fsm_Proc                                6     6      0   27481
                                             24 BANK0      6     6      0
                  _Data_Str_Disp_LCD
                   _Goto_XY_LCD_Disp
                      _S_Go_Fsm_Proc
 ---------------------------------------------------------------------------------
 (3) _S_Go_Fsm_Proc                                        0     0      0   14599
           _Data_3Digit_Num_Disp_LCD
                   _Goto_XY_LCD_Disp
 ---------------------------------------------------------------------------------
 (2) _Startup_N_Wait_Fsm_Proc                              4     4      0   27481
                                             24 BANK0      4     4      0
                  _Data_Str_Disp_LCD
                   _Goto_XY_LCD_Disp
                    _N_Wait_Fsm_Proc
 ---------------------------------------------------------------------------------
 (3) _N_Wait_Fsm_Proc                                      0     0      0   14599
           _Data_3Digit_Num_Disp_LCD
                   _Goto_XY_LCD_Disp
 ---------------------------------------------------------------------------------
 (2) _Startup_N_Go_Fsm_Proc                                6     6      0   27481
                                             24 BANK0      6     6      0
                  _Data_Str_Disp_LCD
                   _Goto_XY_LCD_Disp
                      _N_Go_Fsm_Proc
 ---------------------------------------------------------------------------------
 (3) _N_Go_Fsm_Proc                                        0     0      0   14599
           _Data_3Digit_Num_Disp_LCD
                   _Goto_XY_LCD_Disp
 ---------------------------------------------------------------------------------
 (2) _Startup_E_Wait_Fsm_Proc                              4     4      0   27481
                                             24 BANK0      4     4      0
                  _Data_Str_Disp_LCD
                    _E_Wait_Fsm_Proc
                   _Goto_XY_LCD_Disp
 ---------------------------------------------------------------------------------
 (3) _E_Wait_Fsm_Proc                                      0     0      0   14599
           _Data_3Digit_Num_Disp_LCD
                   _Goto_XY_LCD_Disp
 ---------------------------------------------------------------------------------
 (2) _Startup_E_Go_Fsm_Proc                                6     6      0   27481
                                             24 BANK0      6     6      0
                  _Data_Str_Disp_LCD
                      _E_Go_Fsm_Proc
                   _Goto_XY_LCD_Disp
 ---------------------------------------------------------------------------------
 (3) _E_Go_Fsm_Proc                                        0     0      0   14599
           _Data_3Digit_Num_Disp_LCD
                   _Goto_XY_LCD_Disp
 ---------------------------------------------------------------------------------
 (4) _Goto_XY_LCD_Disp                                     8     4      4   10959
                                              4 COMMON     8     4      4
                  _Write_LCD_Command
 ---------------------------------------------------------------------------------
 (4) _Data_3Digit_Num_Disp_LCD                            24    22      2    3640
                                              0 BANK0     24    22      2
                     _Write_LCD_Data
                            ___lldiv
                            ___lwdiv
                            ___lwmod
 ---------------------------------------------------------------------------------
 (5) ___lwmod                                              6     2      4     689
                                              0 COMMON     6     2      4
 ---------------------------------------------------------------------------------
 (5) ___lldiv                                             14     6      8     268
                                              0 COMMON    14     6      8
 ---------------------------------------------------------------------------------
 (3) _Data_Str_Disp_LCD                                    2     2      0    1923
                                              3 COMMON     2     2      0
                     _Write_LCD_Data
 ---------------------------------------------------------------------------------
 (5) _Write_LCD_Data                                       1     1      0     150
                                              2 COMMON     1     1      0
                          _LCD_Pulse
 ---------------------------------------------------------------------------------
 (1) _Run_Timer1                                           2     2      0     586
                                              8 COMMON     2     2      0
               _Prescale_Timer1_Calc
                            ___lwdiv
 ---------------------------------------------------------------------------------
 (5) ___lwdiv                                              8     4      4     586
                                              0 COMMON     8     4      4
 ---------------------------------------------------------------------------------
 (2) _Prescale_Timer1_Calc                                 3     3      0       0
                                              0 COMMON     3     3      0
 ---------------------------------------------------------------------------------
 (1) _LCD_Init                                             0     0      0     627
                  _Write_LCD_Command
 ---------------------------------------------------------------------------------
 (2) _Write_LCD_Command                                    2     0      2     627
                                              2 COMMON     2     0      2
                          _LCD_Pulse
 ---------------------------------------------------------------------------------
 (3) _LCD_Pulse                                            0     0      0     128
                         _delay_time
 ---------------------------------------------------------------------------------
 (4) _delay_time                                           2     0      2     128
                                              0 COMMON     2     0      2
 ---------------------------------------------------------------------------------
 Estimated maximum stack depth 5
 ---------------------------------------------------------------------------------

 Call Graph Graphs:

 _main (ROOT)
   _LCD_Const_Disp
     _Data_Str_Disp_LCD
       _Write_LCD_Data
         _LCD_Pulse
           _delay_time
     _Goto_XY_LCD_Disp
       _Write_LCD_Command
         _LCD_Pulse
           _delay_time
   _LCD_Init
     _Write_LCD_Command
       _LCD_Pulse
         _delay_time
   _Run_Timer1
     _Prescale_Timer1_Calc
     ___lwdiv
   _Timer1_Tick
     _Traffic_Fsm
       _Data_Str_Disp_LCD
         _Write_LCD_Data
           _LCD_Pulse
             _delay_time
       _E_Go_Fsm_Proc
         _Data_3Digit_Num_Disp_LCD
           _Write_LCD_Data
             _LCD_Pulse
               _delay_time
           ___lldiv
           ___lwdiv
           ___lwmod
         _Goto_XY_LCD_Disp
           _Write_LCD_Command
             _LCD_Pulse
               _delay_time
       _E_Wait_Fsm_Proc
         _Data_3Digit_Num_Disp_LCD
           _Write_LCD_Data
             _LCD_Pulse
               _delay_time
           ___lldiv
           ___lwdiv
           ___lwmod
         _Goto_XY_LCD_Disp
           _Write_LCD_Command
             _LCD_Pulse
               _delay_time
       _Goto_XY_LCD_Disp
         _Write_LCD_Command
           _LCD_Pulse
             _delay_time
       _N_Go_Fsm_Proc
         _Data_3Digit_Num_Disp_LCD
           _Write_LCD_Data
             _LCD_Pulse
               _delay_time
           ___lldiv
           ___lwdiv
           ___lwmod
         _Goto_XY_LCD_Disp
           _Write_LCD_Command
             _LCD_Pulse
               _delay_time
       _N_Wait_Fsm_Proc
         _Data_3Digit_Num_Disp_LCD
           _Write_LCD_Data
             _LCD_Pulse
               _delay_time
           ___lldiv
           ___lwdiv
           ___lwmod
         _Goto_XY_LCD_Disp
           _Write_LCD_Command
             _LCD_Pulse
               _delay_time
       _S_Go_Fsm_Proc
         _Data_3Digit_Num_Disp_LCD
           _Write_LCD_Data
             _LCD_Pulse
               _delay_time
           ___lldiv
           ___lwdiv
           ___lwmod
         _Goto_XY_LCD_Disp
           _Write_LCD_Command
             _LCD_Pulse
               _delay_time
       _S_Wait_Fsm_Proc
         _Data_3Digit_Num_Disp_LCD
           _Write_LCD_Data
             _LCD_Pulse
               _delay_time
           ___lldiv
           ___lwdiv
           ___lwmod
         _Goto_XY_LCD_Disp
           _Write_LCD_Command
             _LCD_Pulse
               _delay_time
       _Startup_E_Go_Fsm_Proc
         _Data_Str_Disp_LCD
           _Write_LCD_Data
             _LCD_Pulse
               _delay_time
         _E_Go_Fsm_Proc
           _Data_3Digit_Num_Disp_LCD
             _Write_LCD_Data
               _LCD_Pulse
                 _delay_time
             ___lldiv
             ___lwdiv
             ___lwmod
           _Goto_XY_LCD_Disp
             _Write_LCD_Command
               _LCD_Pulse
                 _delay_time
         _Goto_XY_LCD_Disp
           _Write_LCD_Command
             _LCD_Pulse
               _delay_time
       _Startup_E_Wait_Fsm_Proc
         _Data_Str_Disp_LCD
           _Write_LCD_Data
             _LCD_Pulse
               _delay_time
         _E_Wait_Fsm_Proc
           _Data_3Digit_Num_Disp_LCD
             _Write_LCD_Data
               _LCD_Pulse
                 _delay_time
             ___lldiv
             ___lwdiv
             ___lwmod
           _Goto_XY_LCD_Disp
             _Write_LCD_Command
               _LCD_Pulse
                 _delay_time
         _Goto_XY_LCD_Disp
           _Write_LCD_Command
             _LCD_Pulse
               _delay_time
       _Startup_N_Go_Fsm_Proc
         _Data_Str_Disp_LCD
           _Write_LCD_Data
             _LCD_Pulse
               _delay_time
         _Goto_XY_LCD_Disp
           _Write_LCD_Command
             _LCD_Pulse
               _delay_time
         _N_Go_Fsm_Proc
           _Data_3Digit_Num_Disp_LCD
             _Write_LCD_Data
               _LCD_Pulse
                 _delay_time
             ___lldiv
             ___lwdiv
             ___lwmod
           _Goto_XY_LCD_Disp
             _Write_LCD_Command
               _LCD_Pulse
                 _delay_time
       _Startup_N_Wait_Fsm_Proc
         _Data_Str_Disp_LCD
           _Write_LCD_Data
             _LCD_Pulse
               _delay_time
         _Goto_XY_LCD_Disp
           _Write_LCD_Command
             _LCD_Pulse
               _delay_time
         _N_Wait_Fsm_Proc
           _Data_3Digit_Num_Disp_LCD
             _Write_LCD_Data
               _LCD_Pulse
                 _delay_time
             ___lldiv
             ___lwdiv
             ___lwmod
           _Goto_XY_LCD_Disp
             _Write_LCD_Command
               _LCD_Pulse
                 _delay_time
       _Startup_S_Go_Fsm_Proc
         _Data_Str_Disp_LCD
           _Write_LCD_Data
             _LCD_Pulse
               _delay_time
         _Goto_XY_LCD_Disp
           _Write_LCD_Command
             _LCD_Pulse
               _delay_time
         _S_Go_Fsm_Proc
           _Data_3Digit_Num_Disp_LCD
             _Write_LCD_Data
               _LCD_Pulse
                 _delay_time
             ___lldiv
             ___lwdiv
             ___lwmod
           _Goto_XY_LCD_Disp
             _Write_LCD_Command
               _LCD_Pulse
                 _delay_time
       _Startup_S_Wait_Fsm_Proc
         _Data_Str_Disp_LCD
           _Write_LCD_Data
             _LCD_Pulse
               _delay_time
         _Goto_XY_LCD_Disp
           _Write_LCD_Command
             _LCD_Pulse
               _delay_time
         _S_Wait_Fsm_Proc
           _Data_3Digit_Num_Disp_LCD
             _Write_LCD_Data
               _LCD_Pulse
                 _delay_time
             ___lldiv
             ___lwdiv
             ___lwmod
           _Goto_XY_LCD_Disp
             _Write_LCD_Command
               _LCD_Pulse
                 _delay_time
       _Startup_W_Go_Fsm_Proc
         _Data_Str_Disp_LCD
           _Write_LCD_Data
             _LCD_Pulse
               _delay_time
         _Goto_XY_LCD_Disp
           _Write_LCD_Command
             _LCD_Pulse
               _delay_time
         _W_Go_Fsm_Proc
           _Data_3Digit_Num_Disp_LCD
             _Write_LCD_Data
               _LCD_Pulse
                 _delay_time
             ___lldiv
             ___lwdiv
             ___lwmod
           _Goto_XY_LCD_Disp
             _Write_LCD_Command
               _LCD_Pulse
                 _delay_time
       _Startup_W_Wait_Fsm_Proc
         _Data_Str_Disp_LCD
           _Write_LCD_Data
             _LCD_Pulse
               _delay_time
         _Goto_XY_LCD_Disp
           _Write_LCD_Command
             _LCD_Pulse
               _delay_time
         _W_Wait_Fsm_Proc
           _Data_3Digit_Num_Disp_LCD
             _Write_LCD_Data
               _LCD_Pulse
                 _delay_time
             ___lldiv
             ___lwdiv
             ___lwmod
           _Goto_XY_LCD_Disp
             _Write_LCD_Command
               _LCD_Pulse
                 _delay_time
       _W_Go_Fsm_Proc
         _Data_3Digit_Num_Disp_LCD
           _Write_LCD_Data
             _LCD_Pulse
               _delay_time
           ___lldiv
           ___lwdiv
           ___lwmod
         _Goto_XY_LCD_Disp
           _Write_LCD_Command
             _LCD_Pulse
               _delay_time
       _W_Wait_Fsm_Proc
         _Data_3Digit_Num_Disp_LCD
           _Write_LCD_Data
             _LCD_Pulse
               _delay_time
           ___lldiv
           ___lwdiv
           ___lwmod
         _Goto_XY_LCD_Disp
           _Write_LCD_Command
             _LCD_Pulse
               _delay_time
     ___lwdiv
   _Traffic_Init
     _LCD_Const_Disp
       _Data_Str_Disp_LCD
         _Write_LCD_Data
           _LCD_Pulse
             _delay_time
       _Goto_XY_LCD_Disp
         _Write_LCD_Command
           _LCD_Pulse
             _delay_time
     _Startup_E_Go_Fsm_Proc
       _Data_Str_Disp_LCD
         _Write_LCD_Data
           _LCD_Pulse
             _delay_time
       _E_Go_Fsm_Proc
         _Data_3Digit_Num_Disp_LCD
           _Write_LCD_Data
             _LCD_Pulse
               _delay_time
           ___lldiv
           ___lwdiv
           ___lwmod
         _Goto_XY_LCD_Disp
           _Write_LCD_Command
             _LCD_Pulse
               _delay_time
       _Goto_XY_LCD_Disp
         _Write_LCD_Command
           _LCD_Pulse
             _delay_time
     _Startup_E_Wait_Fsm_Proc
       _Data_Str_Disp_LCD
         _Write_LCD_Data
           _LCD_Pulse
             _delay_time
       _E_Wait_Fsm_Proc
         _Data_3Digit_Num_Disp_LCD
           _Write_LCD_Data
             _LCD_Pulse
               _delay_time
           ___lldiv
           ___lwdiv
           ___lwmod
         _Goto_XY_LCD_Disp
           _Write_LCD_Command
             _LCD_Pulse
               _delay_time
       _Goto_XY_LCD_Disp
         _Write_LCD_Command
           _LCD_Pulse
             _delay_time
     _Startup_N_Go_Fsm_Proc
       _Data_Str_Disp_LCD
         _Write_LCD_Data
           _LCD_Pulse
             _delay_time
       _Goto_XY_LCD_Disp
         _Write_LCD_Command
           _LCD_Pulse
             _delay_time
       _N_Go_Fsm_Proc
         _Data_3Digit_Num_Disp_LCD
           _Write_LCD_Data
             _LCD_Pulse
               _delay_time
           ___lldiv
           ___lwdiv
           ___lwmod
         _Goto_XY_LCD_Disp
           _Write_LCD_Command
             _LCD_Pulse
               _delay_time
     _Startup_N_Wait_Fsm_Proc
       _Data_Str_Disp_LCD
         _Write_LCD_Data
           _LCD_Pulse
             _delay_time
       _Goto_XY_LCD_Disp
         _Write_LCD_Command
           _LCD_Pulse
             _delay_time
       _N_Wait_Fsm_Proc
         _Data_3Digit_Num_Disp_LCD
           _Write_LCD_Data
             _LCD_Pulse
               _delay_time
           ___lldiv
           ___lwdiv
           ___lwmod
         _Goto_XY_LCD_Disp
           _Write_LCD_Command
             _LCD_Pulse
               _delay_time
     _Startup_S_Go_Fsm_Proc
       _Data_Str_Disp_LCD
         _Write_LCD_Data
           _LCD_Pulse
             _delay_time
       _Goto_XY_LCD_Disp
         _Write_LCD_Command
           _LCD_Pulse
             _delay_time
       _S_Go_Fsm_Proc
         _Data_3Digit_Num_Disp_LCD
           _Write_LCD_Data
             _LCD_Pulse
               _delay_time
           ___lldiv
           ___lwdiv
           ___lwmod
         _Goto_XY_LCD_Disp
           _Write_LCD_Command
             _LCD_Pulse
               _delay_time
     _Startup_S_Wait_Fsm_Proc
       _Data_Str_Disp_LCD
         _Write_LCD_Data
           _LCD_Pulse
             _delay_time
       _Goto_XY_LCD_Disp
         _Write_LCD_Command
           _LCD_Pulse
             _delay_time
       _S_Wait_Fsm_Proc
         _Data_3Digit_Num_Disp_LCD
           _Write_LCD_Data
             _LCD_Pulse
               _delay_time
           ___lldiv
           ___lwdiv
           ___lwmod
         _Goto_XY_LCD_Disp
           _Write_LCD_Command
             _LCD_Pulse
               _delay_time
     _Startup_W_Go_Fsm_Proc
       _Data_Str_Disp_LCD
         _Write_LCD_Data
           _LCD_Pulse
             _delay_time
       _Goto_XY_LCD_Disp
         _Write_LCD_Command
           _LCD_Pulse
             _delay_time
       _W_Go_Fsm_Proc
         _Data_3Digit_Num_Disp_LCD
           _Write_LCD_Data
             _LCD_Pulse
               _delay_time
           ___lldiv
           ___lwdiv
           ___lwmod
         _Goto_XY_LCD_Disp
           _Write_LCD_Command
             _LCD_Pulse
               _delay_time
     _Startup_W_Wait_Fsm_Proc
       _Data_Str_Disp_LCD
         _Write_LCD_Data
           _LCD_Pulse
             _delay_time
       _Goto_XY_LCD_Disp
         _Write_LCD_Command
           _LCD_Pulse
             _delay_time
       _W_Wait_Fsm_Proc
         _Data_3Digit_Num_Disp_LCD
           _Write_LCD_Data
             _LCD_Pulse
               _delay_time
           ___lldiv
           ___lwdiv
           ___lwmod
         _Goto_XY_LCD_Disp
           _Write_LCD_Command
             _LCD_Pulse
               _delay_time
     _Write_LCD_Command
       _LCD_Pulse
         _delay_time

 Address spaces:
Name               Size   Autos  Total    Cost      Usage
BANK3               60      0       0       9        0.0%
BITBANK3            60      0       0       8        0.0%
SFR3                 0      0       0       4        0.0%
BITSFR3              0      0       0       4        0.0%
BANK2               60      0       0      11        0.0%
BITBANK2            60      0       0      10        0.0%
SFR2                 0      0       0       5        0.0%
BITSFR2              0      0       0       5        0.0%
BANK1               50      0      1C       7       35.0%
BITBANK1            50      0       0       6        0.0%
SFR1                 0      0       0       2        0.0%
BITSFR1              0      0       0       2        0.0%
BANK0               50     20      50       5      100.0%
BITBANK0            50      0       0       4        0.0%
SFR0                 0      0       0       1        0.0%
BITSFR0              0      0       0       1        0.0%
COMMON               E      E       E       1      100.0%
BITCOMMON            E      0       0       0        0.0%
CODE                 0      0       0       0        0.0%
DATA                 0      0      7A      12        0.0%
ABS                  0      0      7A       3        0.0%
NULL                 0      0       0       0        0.0%
STACK                0      0       0       2        0.0%
EEDATA             100      0       0       0        0.0%


Microchip Technology PIC Macro Assembler V1.44 build -154322312 
Symbol Table                                                                                   Thu Nov 16 16:25:38 2017

                                     pc 0002                                      fsr 0004  
                                   l214 0596                                     l224 062E  
                                   l216 05AC                                     l320 16F7  
                                   l234 06C6                                     l226 0644  
                                   l250 07D2                                     l244 075E  
                                   l236 06DC                                     l246 0774  
                                   l263 17A1                                     _RB0 0030  
                                   _RB1 0031                                     _RB2 0032  
                                   _RB3 0033                                     _RB4 0034  
                                   _RB5 0035                                     _RB6 0036  
                                   _RE0 0048                                     _RB7 0037  
                                   _RE1 0049                                     _RE2 004A  
                                   u705 17C4                                     u715 17D9  
                                   u725 17EB                                     u910 0045  
                                   u825 0012                                     u755 15FC  
                                   u685 17B6                                     u845 0023  
                                   u775 1608                                     u855 002C  
                                   u935 055F                                     u785 1614  
                                   u795 161E                                     fsr0 0004  
                   _cur_n_red_left_secs 002A                                     indf 0000  
                __end_of_LCD_Const_Disp 0C44             __end_of_level1_traffic_disp 103C  
                ?_Startup_E_Go_Fsm_Proc 0070                             _yellow_disp 1012  
                                  l2303 056B                                    l2305 056F  
                                  l2501 07AD                                    l2407 069B  
                                  l2335 05C2                                    l2409 069F  
                                  l2345 05E5                                    l2505 07B1  
                                  l1803 1628                                    l2451 0719  
                                  l2355 0603                                    l2347 05E9  
                                  l2531 1764                                    l1821 002B  
                                  l2461 0737                                    l2357 0607  
                                  l2541 1778                                    l2533 1768  
                                  l1815 000F                                    l2439 06F2  
                                  l2295 0553                                    l2543 177C  
                                  l2535 176C                                    l1737 1567  
                                  l1817 001D                                    l1825 0036  
                                  l1841 16D9                                    l2449 0715  
                                  l2641 1787                                    l2537 1770  
                                  l2529 1760                                    l1763 17B2  
                                  l2643 07B8                                    l2491 078A  
                                  l2459 0733                                    l2387 065A  
                                  l2539 1774                                    l2547 1780  
                                  l1773 17EA                                    l1765 17C2  
                                  l1845 16E7                                    l2397 067D  
                                  l2573 1739                                    l1791 15F9  
                                  l2399 0681                                    l1793 1607  
                                  l1777 17F7                                    l1891 15D6  
                                  l2587 16A7                                    l1799 161D  
                                  u1015 05F7                                    u1175 0727  
                                  u1095 068F                                    u1274 15CE  
                                  u1275 15CB                                    u1293 1737  
                                  _main 166B                ?_Startup_W_Wait_Fsm_Proc 0070  
                                  btemp 007E                      __size_of_LCD_Pulse 0017  
                                  start 0000           Data_3Digit_Num_Disp_LCD@F1749 00AA  
              __end_of_Goto_XY_LCD_Disp 16F7                        __end_of_LCD_Init 166B  
                       ??_W_Go_Fsm_Proc 007E                                   ?_main 0070  
                                 _ANSEL 0188                         __end_of___lldiv 1800  
                                 _T1CON 0010                         __end_of___lwdiv 162D  
                       __end_of___lwmod 003B         __end_of_Startup_S_Wait_Fsm_Proc 1000  
                                 _TMR1H 000F                                   _TMR1L 000E  
                                 _PORTA 0005                                   _PORTB 0006  
                                 _PORTC 0007                                   _PORTD 0008  
                                 _PORTE 0009                                   _TRISA 0085  
                                 _TRISB 0086                                   _TRISC 0087  
                                 _TRISD 0088                                   _TRISE 0089  
                       ?_LCD_Const_Disp 0070            __end_of_Prescale_Timer1_Calc 15D5  
               _Startup_N_Wait_Fsm_Proc 0D31               Data_Str_Disp_LCD@char_ptr 0074  
                                 pclath 000A                                   status 0003  
                                 wtemp0 007E                __size_of_S_Wait_Fsm_Proc 0065  
               __size_of_Write_LCD_Data 000B                  _cur_s_yellow_left_secs 0022  
                 _Startup_W_Go_Fsm_Proc 02EC                         __initialization 07D3  
                      _cur_disp_lcd_loc 006C                            __end_of_main 16AD  
                 _cur_n_green_left_secs 0026                   __end_of_S_Go_Fsm_Proc 0A32  
                                ??_main 007E                       __end_of_LCD_Pulse 15BE  
     __size_of_Data_3Digit_Num_Disp_LCD 009D               ?_Data_3Digit_Num_Disp_LCD 0042  
                       _N_Wait_Fsm_Proc 0968             __end_of_level2_traffic_disp 103A  
       __end_of_Startup_W_Wait_Fsm_Proc 0F0B          __size_of_Startup_N_Go_Fsm_Proc 0112  
                                _ANSELH 0189           __end_of_Startup_N_Go_Fsm_Proc 0508  
              ?_Startup_E_Wait_Fsm_Proc 0070                                  _TMR1IF 0060  
                __size_of_N_Go_Fsm_Proc 0065                       _traffic_fsm_state 006A  
                         ??_Timer1_Tick 0060                   __end_of_E_Go_Fsm_Proc 089E  
              __size_of_W_Wait_Fsm_Proc 0065                               ??___lldiv 0078  
                             ??___lwdiv 0074                               ??___lwmod 0074  
                      __end_of_red_disp 102D               ??_Startup_N_Wait_Fsm_Proc 005A  
                            _Run_Timer1 080B                           ??_Traffic_Fsm 007E  
               ??_Startup_S_Go_Fsm_Proc 005A                      _error_traffic_disp 1036  
               __end_of__initialization 07FC                               ?_LCD_Init 0070  
                ?_Startup_W_Go_Fsm_Proc 0070                    __end_of_led_off_disp 1012  
      __size_of_Startup_S_Wait_Fsm_Proc 00F5                    _Prescale_Timer1_Calc 15BE  
                        __pcstackCOMMON 0070                            __pidataBANK0 1574  
                          __pidataBANK1 1593                       ??_S_Wait_Fsm_Proc 007E  
                   __end_of_Timer1_Tick 1747                 __end_of_N_Wait_Fsm_Proc 09CD  
                         _N_Go_Fsm_Proc 0903                        _green_right_disp 1006  
               ??_Startup_E_Go_Fsm_Proc 005A                  _cur_n_yellow_left_secs 0028  
       __end_of_Startup_E_Wait_Fsm_Proc 0D31                              __pbssBANK0 0020  
                            __pbssBANK1 00B4                Goto_XY_LCD_Disp@line_lcd 007A  
              Goto_XY_LCD_Disp@line_num 0074                              ??_LCD_Init 0074  
                        _Write_LCD_Data 0800                     __end_of_Traffic_Fsm 07D3  
                            _delay_time 1567                   ?_Prescale_Timer1_Calc 0070  
              __size_of_E_Wait_Fsm_Proc 0065                              __pmaintext 166B  
                        ?_N_Go_Fsm_Proc 0070                        ??_LCD_Const_Disp 007C  
                     ?_Goto_XY_LCD_Disp 0074        __size_of_Startup_W_Wait_Fsm_Proc 00ED  
                       _prescale_timer1 006E                                 _T1CKPS0 0084  
                               _T1CKPS1 0085                      ??_Goto_XY_LCD_Disp 0078  
                     ??_W_Wait_Fsm_Proc 007E                             ?_Run_Timer1 0070  
                            __stringtab 1000                  __end_of_Write_LCD_Data 080B  
                   _cur_s_red_left_secs 0024  Data_3Digit_Num_Disp_LCD@hundreds_digit 0052  
                     __end_of_east_disp 1046                              _green_disp 101B  
                 _cur_e_green_left_secs 0036                             _Timer1_Tick 16F7  
      __end_of_Data_3Digit_Num_Disp_LCD 00D8      Data_3Digit_Num_Disp_LCD@tens_digit 0054  
                               ___lldiv 17A2                                 ___lwdiv 15F1  
                               ___lwmod 0009                        ?_N_Wait_Fsm_Proc 0070  
                         ?_Traffic_Init 0060                                 __ptext1 1747  
                               __ptext2 0B61                                 __ptext3 16F7  
                               __ptext4 0508                                 __ptext5 0E1E  
                               __ptext6 0AFC                                 __ptext7 02EC  
                               __ptext8 0A97                                 __ptext9 0F0B  
                 __end_of_W_Go_Fsm_Proc 0AFC                               _LCD_Pulse 15A7  
                               clrloop0 1556      Data_3Digit_Num_Disp_LCD@unit_digit 0056  
                     __end_of_secs_disp 1034                             _Traffic_Fsm 0508  
                  end_of_initialization 07FC                         ?_Write_LCD_Data 0070  
                ??_Prescale_Timer1_Calc 0070                 _Startup_S_Wait_Fsm_Proc 0F0B  
                       ___lldiv@divisor 0070                         ___lldiv@counter 007D  
                           ?_delay_time 0070                     _cur_w_red_left_secs 0032  
                   __size_of_Run_Timer1 002E                         ??_N_Go_Fsm_Proc 007E  
      __size_of_Startup_E_Wait_Fsm_Proc 00ED                       __end_of_west_disp 1044  
                            _north_disp 1040                          ??_Traffic_Init 007E  
                     ??_E_Wait_Fsm_Proc 007E                     _level0_traffic_disp 103C  
                          _led_off_disp 100E                              ?_LCD_Pulse 0070  
               ??_Startup_W_Go_Fsm_Proc 005A          __size_of_Startup_S_Go_Fsm_Proc 010A  
         __end_of_Startup_S_Go_Fsm_Proc 02EC                         _S_Wait_Fsm_Proc 0A32  
                 _Startup_N_Go_Fsm_Proc 03F6                __end_of_green_right_disp 100E  
                      _s_green_duration 0062                  __size_of_S_Go_Fsm_Proc 0065  
                     __size_of_LCD_Init 003E              __end_of_blank_traffic_disp 1036  
                            _south_disp 103E                 _Startup_W_Wait_Fsm_Proc 0E1E  
                     _Data_Str_Disp_LCD 15D5                _Data_3Digit_Num_Disp_LCD 003B  
                    ?_Data_Str_Disp_LCD 0070                   _cur_s_green_left_secs 0020  
                   start_initialization 07D3          __size_of_Startup_E_Go_Fsm_Proc 010A  
         __end_of_Startup_E_Go_Fsm_Proc 01E2                     __size_of_delay_time 000D  
                   ??_Data_Str_Disp_LCD 0073                       _Write_LCD_Command 155D  
                __size_of_E_Go_Fsm_Proc 0065                      ?_Write_LCD_Command 0072  
             ??_Startup_S_Wait_Fsm_Proc 005A                     _cur_e_red_left_secs 003A  
                   ??_Write_LCD_Command 0074                         _W_Wait_Fsm_Proc 0AFC  
             __end_of_Data_Str_Disp_LCD 15F1                              init_fetch0 1582  
                           __pdataBANK0 0062                             __pdataBANK1 00A0  
              ?_Startup_N_Wait_Fsm_Proc 0070                     _level1_traffic_disp 103A  
                         _S_Go_Fsm_Proc 09CD                            ??_Run_Timer1 0078  
           _cur_s_green_right_secs_left 00B8                               ___latbits 0002  
                         __pcstackBANK0 0042               __end_of_Write_LCD_Command 1567  
                   __end_of_led_on_disp 1031                 __end_of_S_Wait_Fsm_Proc 0A97  
                           ??_LCD_Pulse 0072               __size_of_Goto_XY_LCD_Disp 004A  
                ?_Startup_N_Go_Fsm_Proc 0070                 Goto_XY_LCD_Disp@col_lcd 0078  
               Goto_XY_LCD_Disp@col_num 0076                    __end_of_Traffic_Init 17A2  
                          ?_Timer1_Tick 0070                        ___lwdiv@dividend 0072  
             ??_Startup_W_Wait_Fsm_Proc 005A                 _Startup_E_Wait_Fsm_Proc 0C44  
                    __end_of_Run_Timer1 0839                               _east_disp 1044  
                        _prescale_shift 0040                           _E_Go_Fsm_Proc 0839  
                              ?___lldiv 0070                                ?___lwdiv 0070  
                              ?___lwmod 0070                               __pstrings 1000  
                        ?_S_Go_Fsm_Proc 0070               Data_2Digit_Num_Disp@F1759 00A0  
                      _w_green_duration 0066                        ??_Write_LCD_Data 0072  
                      ___lwdiv@quotient 0075                            ?_Traffic_Fsm 0070  
               __end_of_W_Wait_Fsm_Proc 0B61                                _LCD_Init 162D  
                             _secs_disp 1031                               clear_ram0 1555  
                       _E_Wait_Fsm_Proc 089E                        Write_LCD_Data@ch 0072  
                          ??_delay_time 0072                               _num_calls 00B4  
       __end_of_Startup_N_Wait_Fsm_Proc 0E1E                          ?_E_Go_Fsm_Proc 0070  
            __size_of_Data_Str_Disp_LCD 001C                             _led_on_disp 102D  
                           __stringbase 1005                     _level2_traffic_disp 1038  
                             _west_disp 1042                    Write_LCD_Command@cmd 0072  
            __size_of_Write_LCD_Command 000A                __size_of_N_Wait_Fsm_Proc 0065  
                      ?_S_Wait_Fsm_Proc 0070                 __size_of_LCD_Const_Disp 00E3  
                    __end_of_delay_time 1574             Data_3Digit_Num_Disp_LCD@num 0058  
        __size_of_Startup_W_Go_Fsm_Proc 010A           __end_of_Startup_W_Go_Fsm_Proc 03F6  
             ??_Startup_E_Wait_Fsm_Proc 005A                  _cur_e_yellow_left_secs 0038  
                _cur_w_yellow_left_secs 0030                  __size_of_W_Go_Fsm_Proc 0065  
            ??_Data_3Digit_Num_Disp_LCD 0044           __size_of_Prescale_Timer1_Calc 0017  
                    _each_fsmstate_secs 003E                         ??_S_Go_Fsm_Proc 007E  
                 __end_of_N_Go_Fsm_Proc 0968                        __size_of___lldiv 005E  
                      __size_of___lwdiv 003C                        _n_green_duration 0064  
                      __size_of___lwmod 0032                      __end_of__stringtab 1006  
                    _blank_traffic_disp 1034                         ___lwdiv@divisor 0070  
                    __end_of_green_disp 1024                         ___lwdiv@counter 0077  
                              __ptext10 0A32                                __ptext11 01E2  
                              __ptext20 0839                                __ptext12 09CD  
                              __ptext21 16AD                                __ptext13 0D31  
                              __ptext30 162D                                __ptext22 003B  
                              __ptext14 0968                                __ptext31 155D  
                              __ptext23 0009                                __ptext15 03F6  
                              __ptext32 15A7                                __ptext24 17A2  
                              __ptext16 0903                                __ptext33 1567  
                              __ptext25 15D5                                __ptext17 0C44  
                              __ptext26 0800                                __ptext18 089E  
                              __ptext27 080B                                __ptext19 00D8  
                              __ptext28 15F1                                __ptext29 15BE  
                 __size_of_Traffic_Init 005B                 __end_of_E_Wait_Fsm_Proc 0903  
                      _Goto_XY_LCD_Disp 16AD                           __size_of_main 0042  
                      ?_W_Wait_Fsm_Proc 0070                                _red_disp 1024  
                 _Startup_S_Go_Fsm_Proc 01E2                         ??_E_Go_Fsm_Proc 007E  
                  delay_time@time_delay 0070        Data_3Digit_Num_Disp_LCD@data_int 0042  
                  __size_of_Timer1_Tick 0050                            _Traffic_Init 1747  
                         _W_Go_Fsm_Proc 0A97                   _cur_w_green_left_secs 002E  
           __end_of_level0_traffic_disp 103E                                init_ram0 1586  
               ??_Startup_N_Go_Fsm_Proc 005A            Traffic_Init@traffic_fsm_init 0060  
      Data_3Digit_Num_Disp_LCD@num_data 0048                   _Startup_E_Go_Fsm_Proc 00D8  
      __size_of_Startup_N_Wait_Fsm_Proc 00ED                        ___lwmod@dividend 0072  
                  __size_of_Traffic_Fsm 02CB                        ___lldiv@dividend 0074  
                     ??_N_Wait_Fsm_Proc 007E                     __end_of_yellow_disp 101B  
                    __end_of_north_disp 1042                               stringcode 1000  
           _cur_e_green_right_secs_left 0034                        _e_green_duration 0068  
                           _timer1_init 003C             _cur_n_green_right_secs_left 00BA  
                        ?_W_Go_Fsm_Proc 0070              __end_of_error_traffic_disp 1038  
                      ___lldiv@quotient 0079                         ___lwmod@divisor 0070  
                       ___lwmod@counter 0075                                stringdir 1000  
                              stringtab 1000                          _LCD_Const_Disp 0B61  
                    __end_of_south_disp 1040             _cur_w_green_right_secs_left 002C  
              ?_Startup_S_Wait_Fsm_Proc 0070                        ?_E_Wait_Fsm_Proc 0070  
                ?_Startup_S_Go_Fsm_Proc 0070  
